
runtime/libpyyruntime.a(hashtable.o):	file format Mach-O 32-bit i386

Disassembly of section __TEXT,__text:
_create_hashtable:
       0:	55 	pushl	%ebp
       1:	89 e5 	movl	%esp, %ebp
       3:	53 	pushl	%ebx
       4:	57 	pushl	%edi
       5:	56 	pushl	%esi
       6:	83 ec 2c 	subl	$44, %esp
       9:	e8 00 00 00 00 	calll	0 <_create_hashtable+0xE>
       e:	5a 	popl	%edx
       f:	8b 75 08 	movl	8(%ebp), %esi
      12:	31 c0 	xorl	%eax, %eax
      14:	81 fe 00 00 00 40 	cmpl	$1073741824, %esi
      1a:	0f 87 fa 02 00 00 	ja	762 <_create_hashtable+0x31A>
      20:	b9 35 00 00 00 	movl	$53, %ecx
      25:	31 c0 	xorl	%eax, %eax
      27:	83 fe 35 	cmpl	$53, %esi
      2a:	bf 00 00 00 00 	movl	$0, %edi
      2f:	0f 82 3e 02 00 00 	jb	574 <_create_hashtable+0x273>
      35:	83 fe 60 	cmpl	$96, %esi
      38:	77 0f 	ja	15 <_create_hashtable+0x49>
      3a:	b9 61 00 00 00 	movl	$97, %ecx
      3f:	bf 01 00 00 00 	movl	$1, %edi
      44:	e9 2a 02 00 00 	jmp	554 <_create_hashtable+0x273>
      49:	81 fe c1 00 00 00 	cmpl	$193, %esi
      4f:	73 0f 	jae	15 <_create_hashtable+0x60>
      51:	b9 c1 00 00 00 	movl	$193, %ecx
      56:	bf 02 00 00 00 	movl	$2, %edi
      5b:	e9 13 02 00 00 	jmp	531 <_create_hashtable+0x273>
      60:	81 fe 85 01 00 00 	cmpl	$389, %esi
      66:	73 0f 	jae	15 <_create_hashtable+0x77>
      68:	b9 85 01 00 00 	movl	$389, %ecx
      6d:	bf 03 00 00 00 	movl	$3, %edi
      72:	e9 fc 01 00 00 	jmp	508 <_create_hashtable+0x273>
      77:	81 fe 01 03 00 00 	cmpl	$769, %esi
      7d:	73 0f 	jae	15 <_create_hashtable+0x8E>
      7f:	b9 01 03 00 00 	movl	$769, %ecx
      84:	bf 04 00 00 00 	movl	$4, %edi
      89:	e9 e5 01 00 00 	jmp	485 <_create_hashtable+0x273>
      8e:	81 fe 07 06 00 00 	cmpl	$1543, %esi
      94:	73 0f 	jae	15 <_create_hashtable+0xA5>
      96:	b9 07 06 00 00 	movl	$1543, %ecx
      9b:	bf 05 00 00 00 	movl	$5, %edi
      a0:	e9 ce 01 00 00 	jmp	462 <_create_hashtable+0x273>
      a5:	81 fe 07 0c 00 00 	cmpl	$3079, %esi
      ab:	73 0f 	jae	15 <_create_hashtable+0xBC>
      ad:	b9 07 0c 00 00 	movl	$3079, %ecx
      b2:	bf 06 00 00 00 	movl	$6, %edi
      b7:	e9 b7 01 00 00 	jmp	439 <_create_hashtable+0x273>
      bc:	81 fe 07 18 00 00 	cmpl	$6151, %esi
      c2:	73 0f 	jae	15 <_create_hashtable+0xD3>
      c4:	b9 07 18 00 00 	movl	$6151, %ecx
      c9:	bf 07 00 00 00 	movl	$7, %edi
      ce:	e9 a0 01 00 00 	jmp	416 <_create_hashtable+0x273>
      d3:	81 fe 01 30 00 00 	cmpl	$12289, %esi
      d9:	73 0f 	jae	15 <_create_hashtable+0xEA>
      db:	b9 01 30 00 00 	movl	$12289, %ecx
      e0:	bf 08 00 00 00 	movl	$8, %edi
      e5:	e9 89 01 00 00 	jmp	393 <_create_hashtable+0x273>
      ea:	81 fe 11 60 00 00 	cmpl	$24593, %esi
      f0:	73 0f 	jae	15 <_create_hashtable+0x101>
      f2:	b9 11 60 00 00 	movl	$24593, %ecx
      f7:	bf 09 00 00 00 	movl	$9, %edi
      fc:	e9 72 01 00 00 	jmp	370 <_create_hashtable+0x273>
     101:	81 fe 05 c0 00 00 	cmpl	$49157, %esi
     107:	73 0f 	jae	15 <_create_hashtable+0x118>
     109:	b9 05 c0 00 00 	movl	$49157, %ecx
     10e:	bf 0a 00 00 00 	movl	$10, %edi
     113:	e9 5b 01 00 00 	jmp	347 <_create_hashtable+0x273>
     118:	81 fe 0d 80 01 00 	cmpl	$98317, %esi
     11e:	73 0f 	jae	15 <_create_hashtable+0x12F>
     120:	b9 0d 80 01 00 	movl	$98317, %ecx
     125:	bf 0b 00 00 00 	movl	$11, %edi
     12a:	e9 44 01 00 00 	jmp	324 <_create_hashtable+0x273>
     12f:	81 fe 05 00 03 00 	cmpl	$196613, %esi
     135:	73 0f 	jae	15 <_create_hashtable+0x146>
     137:	b9 05 00 03 00 	movl	$196613, %ecx
     13c:	bf 0c 00 00 00 	movl	$12, %edi
     141:	e9 2d 01 00 00 	jmp	301 <_create_hashtable+0x273>
     146:	89 d3 	movl	%edx, %ebx
     148:	81 fe 19 00 06 00 	cmpl	$393241, %esi
     14e:	73 11 	jae	17 <_create_hashtable+0x161>
     150:	b9 19 00 06 00 	movl	$393241, %ecx
     155:	89 da 	movl	%ebx, %edx
     157:	bf 0d 00 00 00 	movl	$13, %edi
     15c:	e9 10 01 00 00 	jmp	272 <_create_hashtable+0x271>
     161:	81 fe 01 00 0c 00 	cmpl	$786433, %esi
     167:	73 11 	jae	17 <_create_hashtable+0x17A>
     169:	b9 01 00 0c 00 	movl	$786433, %ecx
     16e:	89 da 	movl	%ebx, %edx
     170:	bf 0e 00 00 00 	movl	$14, %edi
     175:	e9 f7 00 00 00 	jmp	247 <_create_hashtable+0x271>
     17a:	81 fe 05 00 18 00 	cmpl	$1572869, %esi
     180:	73 11 	jae	17 <_create_hashtable+0x193>
     182:	b9 05 00 18 00 	movl	$1572869, %ecx
     187:	89 da 	movl	%ebx, %edx
     189:	bf 0f 00 00 00 	movl	$15, %edi
     18e:	e9 de 00 00 00 	jmp	222 <_create_hashtable+0x271>
     193:	81 fe 0b 00 30 00 	cmpl	$3145739, %esi
     199:	73 11 	jae	17 <_create_hashtable+0x1AC>
     19b:	b9 0b 00 30 00 	movl	$3145739, %ecx
     1a0:	89 da 	movl	%ebx, %edx
     1a2:	bf 10 00 00 00 	movl	$16, %edi
     1a7:	e9 c5 00 00 00 	jmp	197 <_create_hashtable+0x271>
     1ac:	81 fe 0d 00 60 00 	cmpl	$6291469, %esi
     1b2:	73 11 	jae	17 <_create_hashtable+0x1C5>
     1b4:	b9 0d 00 60 00 	movl	$6291469, %ecx
     1b9:	89 da 	movl	%ebx, %edx
     1bb:	bf 11 00 00 00 	movl	$17, %edi
     1c0:	e9 ac 00 00 00 	jmp	172 <_create_hashtable+0x271>
     1c5:	81 fe 05 00 c0 00 	cmpl	$12582917, %esi
     1cb:	73 11 	jae	17 <_create_hashtable+0x1DE>
     1cd:	b9 05 00 c0 00 	movl	$12582917, %ecx
     1d2:	89 da 	movl	%ebx, %edx
     1d4:	bf 12 00 00 00 	movl	$18, %edi
     1d9:	e9 93 00 00 00 	jmp	147 <_create_hashtable+0x271>
     1de:	81 fe 13 00 80 01 	cmpl	$25165843, %esi
     1e4:	73 0e 	jae	14 <_create_hashtable+0x1F4>
     1e6:	b9 13 00 80 01 	movl	$25165843, %ecx
     1eb:	89 da 	movl	%ebx, %edx
     1ed:	bf 13 00 00 00 	movl	$19, %edi
     1f2:	eb 7d 	jmp	125 <_create_hashtable+0x271>
     1f4:	81 fe 05 00 00 03 	cmpl	$50331653, %esi
     1fa:	73 0e 	jae	14 <_create_hashtable+0x20A>
     1fc:	b9 05 00 00 03 	movl	$50331653, %ecx
     201:	89 da 	movl	%ebx, %edx
     203:	bf 14 00 00 00 	movl	$20, %edi
     208:	eb 67 	jmp	103 <_create_hashtable+0x271>
     20a:	81 fe 17 00 00 06 	cmpl	$100663319, %esi
     210:	73 0e 	jae	14 <_create_hashtable+0x220>
     212:	b9 17 00 00 06 	movl	$100663319, %ecx
     217:	89 da 	movl	%ebx, %edx
     219:	bf 15 00 00 00 	movl	$21, %edi
     21e:	eb 51 	jmp	81 <_create_hashtable+0x271>
     220:	81 fe 13 00 00 0c 	cmpl	$201326611, %esi
     226:	73 0e 	jae	14 <_create_hashtable+0x236>
     228:	b9 13 00 00 0c 	movl	$201326611, %ecx
     22d:	89 da 	movl	%ebx, %edx
     22f:	bf 16 00 00 00 	movl	$22, %edi
     234:	eb 3b 	jmp	59 <_create_hashtable+0x271>
     236:	81 fe 05 00 00 18 	cmpl	$402653189, %esi
     23c:	73 0e 	jae	14 <_create_hashtable+0x24C>
     23e:	b9 05 00 00 18 	movl	$402653189, %ecx
     243:	89 da 	movl	%ebx, %edx
     245:	bf 17 00 00 00 	movl	$23, %edi
     24a:	eb 25 	jmp	37 <_create_hashtable+0x271>
     24c:	31 c0 	xorl	%eax, %eax
     24e:	81 fe 58 00 00 30 	cmpl	$805306456, %esi
     254:	0f 97 c0 	seta	%al
     257:	83 c8 18 	orl	$24, %eax
     25a:	81 fe 59 00 00 30 	cmpl	$805306457, %esi
     260:	ba 59 00 00 30 	movl	$805306457, %edx
     265:	b9 05 00 00 60 	movl	$1610612741, %ecx
     26a:	0f 42 ca 	cmovbl	%edx, %ecx
     26d:	89 da 	movl	%ebx, %edx
     26f:	89 c7 	movl	%eax, %edi
     271:	31 c0 	xorl	%eax, %eax
     273:	89 7d ec 	movl	%edi, -20(%ebp)
     276:	89 d6 	movl	%edx, %esi
     278:	89 cb 	movl	%ecx, %ebx
     27a:	c7 04 24 1c 00 00 00 	movl	$28, (%esp)
     281:	e8 7a fd ff ff 	calll	-646 <_create_hashtable>
     286:	89 c7 	movl	%eax, %edi
     288:	85 ff 	testl	%edi, %edi
     28a:	0f 84 88 00 00 00 	je	136 <_create_hashtable+0x318>
     290:	89 75 f0 	movl	%esi, -16(%ebp)
     293:	89 de 	movl	%ebx, %esi
     295:	8d 1c b5 00 00 00 00 	leal	(,%esi,4), %ebx
     29c:	89 1c 24 	movl	%ebx, (%esp)
     29f:	e8 5c fd ff ff 	calll	-676 <_create_hashtable>
     2a4:	89 47 04 	movl	%eax, 4(%edi)
     2a7:	85 c0 	testl	%eax, %eax
     2a9:	74 65 	je	101 <_create_hashtable+0x310>
     2ab:	89 5c 24 04 	movl	%ebx, 4(%esp)
     2af:	89 04 24 	movl	%eax, (%esp)
     2b2:	e8 49 fd ff ff 	calll	-695 <_create_hashtable>
     2b7:	89 37 	movl	%esi, (%edi)
     2b9:	8b 45 ec 	movl	-20(%ebp), %eax
     2bc:	89 47 10 	movl	%eax, 16(%edi)
     2bf:	c7 47 08 00 00 00 00 	movl	$0, 8(%edi)
     2c6:	8b 45 0c 	movl	12(%ebp), %eax
     2c9:	89 47 14 	movl	%eax, 20(%edi)
     2cc:	8b 45 10 	movl	16(%ebp), %eax
     2cf:	89 47 18 	movl	%eax, 24(%edi)
     2d2:	66 0f 6e c6 	movd	%esi, %xmm0
     2d6:	8b 75 f0 	movl	-16(%ebp), %esi
     2d9:	f3 0f 7e 8e e2 07 00 00 	movq	2018(%esi), %xmm1
     2e1:	66 0f eb c1 	por	%xmm1, %xmm0
     2e5:	f2 0f 5c c1 	subsd	%xmm1, %xmm0
     2e9:	f2 0f 5a c0 	cvtsd2ss	%xmm0, %xmm0
     2ed:	f3 0f 59 86 f2 07 00 00 	mulss	2034(%esi), %xmm0
     2f5:	66 0f 3a 0a c0 0a 	roundss	$10, %xmm0, %xmm0
     2fb:	f3 0f 11 45 d8 	movss	%xmm0, -40(%ebp)
     300:	d9 45 d8 	flds	-40(%ebp)
     303:	dd 4d e0 	fisttpll	-32(%ebp)
     306:	8b 45 e0 	movl	-32(%ebp), %eax
     309:	89 47 0c 	movl	%eax, 12(%edi)
     30c:	89 f8 	movl	%edi, %eax
     30e:	eb 0a 	jmp	10 <_create_hashtable+0x31A>
     310:	89 3c 24 	movl	%edi, (%esp)
     313:	e8 e8 fc ff ff 	calll	-792 <_create_hashtable>
     318:	31 c0 	xorl	%eax, %eax
     31a:	83 c4 2c 	addl	$44, %esp
     31d:	5e 	popl	%esi
     31e:	5f 	popl	%edi
     31f:	5b 	popl	%ebx
     320:	5d 	popl	%ebp
     321:	c3 	retl
     322:	66 66 66 66 66 2e 0f 1f 84 00 00 00 00 00 	nopw	%cs:(%eax,%eax)

_hash:
     330:	55 	pushl	%ebp
     331:	89 e5 	movl	%esp, %ebp
     333:	83 ec 08 	subl	$8, %esp
     336:	8b 45 08 	movl	8(%ebp), %eax
     339:	8b 4d 0c 	movl	12(%ebp), %ecx
     33c:	89 0c 24 	movl	%ecx, (%esp)
     33f:	ff 50 14 	calll	*20(%eax)
     342:	89 c1 	movl	%eax, %ecx
     344:	c1 e1 09 	shll	$9, %ecx
     347:	f7 d1 	notl	%ecx
     349:	01 c1 	addl	%eax, %ecx
     34b:	89 ca 	movl	%ecx, %edx
     34d:	c1 c2 12 	roll	$18, %edx
     350:	31 ca 	xorl	%ecx, %edx
     352:	89 d1 	movl	%edx, %ecx
     354:	c1 e1 04 	shll	$4, %ecx
     357:	01 d1 	addl	%edx, %ecx
     359:	89 c8 	movl	%ecx, %eax
     35b:	c1 e8 0a 	shrl	$10, %eax
     35e:	69 d2 00 00 40 04 	imull	$71303168, %edx, %edx
     364:	09 d0 	orl	%edx, %eax
     366:	31 c8 	xorl	%ecx, %eax
     368:	83 c4 08 	addl	$8, %esp
     36b:	5d 	popl	%ebp
     36c:	c3 	retl
     36d:	0f 1f 00 	nopl	(%eax)

_hashtable_count:
     370:	55 	pushl	%ebp
     371:	89 e5 	movl	%esp, %ebp
     373:	8b 45 08 	movl	8(%ebp), %eax
     376:	8b 40 08 	movl	8(%eax), %eax
     379:	5d 	popl	%ebp
     37a:	c3 	retl
     37b:	0f 1f 44 00 00 	nopl	(%eax,%eax)

_hashtable_insert:
     380:	55 	pushl	%ebp
     381:	89 e5 	movl	%esp, %ebp
     383:	53 	pushl	%ebx
     384:	57 	pushl	%edi
     385:	56 	pushl	%esi
     386:	83 ec 2c 	subl	$44, %esp
     389:	e8 00 00 00 00 	calll	0 <_hashtable_insert+0xE>
     38e:	5a 	popl	%edx
     38f:	8b 75 08 	movl	8(%ebp), %esi
     392:	8b 46 08 	movl	8(%esi), %eax
     395:	40 	incl	%eax
     396:	89 46 08 	movl	%eax, 8(%esi)
     399:	3b 46 0c 	cmpl	12(%esi), %eax
     39c:	0f 86 8b 01 00 00 	jbe	395 <_hashtable_insert+0x1AD>
     3a2:	8b 46 10 	movl	16(%esi), %eax
     3a5:	83 f8 19 	cmpl	$25, %eax
     3a8:	0f 84 7f 01 00 00 	je	383 <_hashtable_insert+0x1AD>
     3ae:	8d 48 01 	leal	1(%eax), %ecx
     3b1:	89 4e 10 	movl	%ecx, 16(%esi)
     3b4:	89 55 e8 	movl	%edx, -24(%ebp)
     3b7:	8b 84 82 86 04 00 00 	movl	1158(%edx,%eax,4), %eax
     3be:	89 45 f0 	movl	%eax, -16(%ebp)
     3c1:	8d 3c 85 00 00 00 00 	leal	(,%eax,4), %edi
     3c8:	89 3c 24 	movl	%edi, (%esp)
     3cb:	e8 30 fc ff ff 	calll	-976 <_create_hashtable>
     3d0:	89 f3 	movl	%esi, %ebx
     3d2:	89 c6 	movl	%eax, %esi
     3d4:	85 f6 	testl	%esi, %esi
     3d6:	74 6b 	je	107 <_hashtable_insert+0xC3>
     3d8:	89 7c 24 04 	movl	%edi, 4(%esp)
     3dc:	89 34 24 	movl	%esi, (%esp)
     3df:	e8 1c fc ff ff 	calll	-996 <_create_hashtable>
     3e4:	8b 03 	movl	(%ebx), %eax
     3e6:	89 45 ec 	movl	%eax, -20(%ebp)
     3e9:	85 c0 	testl	%eax, %eax
     3eb:	0f 84 e7 00 00 00 	je	231 <_hashtable_insert+0x158>
     3f1:	8b 43 04 	movl	4(%ebx), %eax
     3f4:	31 c9 	xorl	%ecx, %ecx
     3f6:	66 2e 0f 1f 84 00 00 00 00 00 	nopw	%cs:(%eax,%eax)
     400:	8b 3c 88 	movl	(%eax,%ecx,4), %edi
     403:	85 ff 	testl	%edi, %edi
     405:	74 2e 	je	46 <_hashtable_insert+0xB5>
     407:	8d 14 88 	leal	(%eax,%ecx,4), %edx
     40a:	8b 5d f0 	movl	-16(%ebp), %ebx
     40d:	0f 1f 00 	nopl	(%eax)
     410:	8b 47 0c 	movl	12(%edi), %eax
     413:	89 02 	movl	%eax, (%edx)
     415:	8b 47 08 	movl	8(%edi), %eax
     418:	31 d2 	xorl	%edx, %edx
     41a:	f7 f3 	divl	%ebx
     41c:	8b 04 96 	movl	(%esi,%edx,4), %eax
     41f:	89 47 0c 	movl	%eax, 12(%edi)
     422:	89 3c 96 	movl	%edi, (%esi,%edx,4)
     425:	8b 45 08 	movl	8(%ebp), %eax
     428:	8b 40 04 	movl	4(%eax), %eax
     42b:	8d 14 88 	leal	(%eax,%ecx,4), %edx
     42e:	8b 3c 88 	movl	(%eax,%ecx,4), %edi
     431:	85 ff 	testl	%edi, %edi
     433:	75 db 	jne	-37 <_hashtable_insert+0x90>
     435:	41 	incl	%ecx
     436:	3b 4d ec 	cmpl	-20(%ebp), %ecx
     439:	75 c5 	jne	-59 <_hashtable_insert+0x80>
     43b:	8b 5d 08 	movl	8(%ebp), %ebx
     43e:	e9 98 00 00 00 	jmp	152 <_hashtable_insert+0x15B>
     443:	8b 43 04 	movl	4(%ebx), %eax
     446:	89 7c 24 04 	movl	%edi, 4(%esp)
     44a:	89 04 24 	movl	%eax, (%esp)
     44d:	e8 ae fb ff ff 	calll	-1106 <_create_hashtable>
     452:	89 c6 	movl	%eax, %esi
     454:	85 f6 	testl	%esi, %esi
     456:	0f 84 43 01 00 00 	je	323 <_hashtable_insert+0x21F>
     45c:	89 73 04 	movl	%esi, 4(%ebx)
     45f:	8b 03 	movl	(%ebx), %eax
     461:	8b 4d f0 	movl	-16(%ebp), %ecx
     464:	29 c1 	subl	%eax, %ecx
     466:	8b 04 86 	movl	(%esi,%eax,4), %eax
     469:	89 4c 24 04 	movl	%ecx, 4(%esp)
     46d:	89 04 24 	movl	%eax, (%esp)
     470:	e8 8b fb ff ff 	calll	-1141 <_create_hashtable>
     475:	8b 03 	movl	(%ebx), %eax
     477:	89 45 ec 	movl	%eax, -20(%ebp)
     47a:	85 c0 	testl	%eax, %eax
     47c:	74 68 	je	104 <_hashtable_insert+0x166>
     47e:	31 c9 	xorl	%ecx, %ecx
     480:	8b 04 8e 	movl	(%esi,%ecx,4), %eax
     483:	85 c0 	testl	%eax, %eax
     485:	74 49 	je	73 <_hashtable_insert+0x150>
     487:	8d 3c 8e 	leal	(%esi,%ecx,4), %edi
     48a:	89 c3 	movl	%eax, %ebx
     48c:	0f 1f 40 00 	nopl	(%eax)
     490:	8b 43 08 	movl	8(%ebx), %eax
     493:	31 d2 	xorl	%edx, %edx
     495:	f7 75 f0 	divl	-16(%ebp)
     498:	39 ca 	cmpl	%ecx, %edx
     49a:	74 24 	je	36 <_hashtable_insert+0x140>
     49c:	8b 43 0c 	movl	12(%ebx), %eax
     49f:	89 07 	movl	%eax, (%edi)
     4a1:	8b 04 96 	movl	(%esi,%edx,4), %eax
     4a4:	89 43 0c 	movl	%eax, 12(%ebx)
     4a7:	89 1c 96 	movl	%ebx, (%esi,%edx,4)
     4aa:	8b 1f 	movl	(%edi), %ebx
     4ac:	85 db 	testl	%ebx, %ebx
     4ae:	75 e0 	jne	-32 <_hashtable_insert+0x110>
     4b0:	eb 1e 	jmp	30 <_hashtable_insert+0x150>
     4b2:	66 66 66 66 66 2e 0f 1f 84 00 00 00 00 00 	nopw	%cs:(%eax,%eax)
     4c0:	83 c3 0c 	addl	$12, %ebx
     4c3:	8b 03 	movl	(%ebx), %eax
     4c5:	85 c0 	testl	%eax, %eax
     4c7:	89 df 	movl	%ebx, %edi
     4c9:	75 bf 	jne	-65 <_hashtable_insert+0x10A>
     4cb:	0f 1f 44 00 00 	nopl	(%eax,%eax)
     4d0:	41 	incl	%ecx
     4d1:	3b 4d ec 	cmpl	-20(%ebp), %ecx
     4d4:	75 aa 	jne	-86 <_hashtable_insert+0x100>
     4d6:	eb 0e 	jmp	14 <_hashtable_insert+0x166>
     4d8:	8b 43 04 	movl	4(%ebx), %eax
     4db:	89 04 24 	movl	%eax, (%esp)
     4de:	e8 1d fb ff ff 	calll	-1251 <_create_hashtable>
     4e3:	89 73 04 	movl	%esi, 4(%ebx)
     4e6:	8b 5d 08 	movl	8(%ebp), %ebx
     4e9:	89 de 	movl	%ebx, %esi
     4eb:	8b 4d f0 	movl	-16(%ebp), %ecx
     4ee:	89 0e 	movl	%ecx, (%esi)
     4f0:	8b 45 e8 	movl	-24(%ebp), %eax
     4f3:	f3 0f 7e 80 6a 04 00 00 	movq	1130(%eax), %xmm0
     4fb:	66 0f 6e c9 	movd	%ecx, %xmm1
     4ff:	66 0f eb c8 	por	%xmm0, %xmm1
     503:	f2 0f 5c c8 	subsd	%xmm0, %xmm1
     507:	0f 57 c0 	xorps	%xmm0, %xmm0
     50a:	f2 0f 5a c1 	cvtsd2ss	%xmm1, %xmm0
     50e:	f3 0f 59 80 76 04 00 00 	mulss	1142(%eax), %xmm0
     516:	66 0f 3a 0a c0 0a 	roundss	$10, %xmm0, %xmm0
     51c:	f3 0f 11 45 d8 	movss	%xmm0, -40(%ebp)
     521:	d9 45 d8 	flds	-40(%ebp)
     524:	dd 4d e0 	fisttpll	-32(%ebp)
     527:	8b 45 e0 	movl	-32(%ebp), %eax
     52a:	89 46 0c 	movl	%eax, 12(%esi)
     52d:	89 f7 	movl	%esi, %edi
     52f:	c7 04 24 10 00 00 00 	movl	$16, (%esp)
     536:	e8 c5 fa ff ff 	calll	-1339 <_create_hashtable>
     53b:	89 c6 	movl	%eax, %esi
     53d:	85 f6 	testl	%esi, %esi
     53f:	74 51 	je	81 <_hashtable_insert+0x212>
     541:	8b 5d 0c 	movl	12(%ebp), %ebx
     544:	89 1c 24 	movl	%ebx, (%esp)
     547:	ff 57 14 	calll	*20(%edi)
     54a:	89 c1 	movl	%eax, %ecx
     54c:	c1 e1 09 	shll	$9, %ecx
     54f:	f7 d1 	notl	%ecx
     551:	01 c1 	addl	%eax, %ecx
     553:	89 c8 	movl	%ecx, %eax
     555:	c1 c0 12 	roll	$18, %eax
     558:	31 c8 	xorl	%ecx, %eax
     55a:	89 c1 	movl	%eax, %ecx
     55c:	c1 e1 04 	shll	$4, %ecx
     55f:	01 c1 	addl	%eax, %ecx
     561:	89 ca 	movl	%ecx, %edx
     563:	c1 ea 0a 	shrl	$10, %edx
     566:	69 c0 00 00 40 04 	imull	$71303168, %eax, %eax
     56c:	09 d0 	orl	%edx, %eax
     56e:	31 c8 	xorl	%ecx, %eax
     570:	89 46 08 	movl	%eax, 8(%esi)
     573:	31 d2 	xorl	%edx, %edx
     575:	f7 37 	divl	(%edi)
     577:	89 1e 	movl	%ebx, (%esi)
     579:	8b 45 10 	movl	16(%ebp), %eax
     57c:	89 46 04 	movl	%eax, 4(%esi)
     57f:	8b 47 04 	movl	4(%edi), %eax
     582:	8b 0c 90 	movl	(%eax,%edx,4), %ecx
     585:	89 4e 0c 	movl	%ecx, 12(%esi)
     588:	89 34 90 	movl	%esi, (%eax,%edx,4)
     58b:	b8 ff ff ff ff 	movl	$4294967295, %eax
     590:	eb 05 	jmp	5 <_hashtable_insert+0x217>
     592:	ff 4f 08 	decl	8(%edi)
     595:	31 c0 	xorl	%eax, %eax
     597:	83 c4 2c 	addl	$44, %esp
     59a:	5e 	popl	%esi
     59b:	5f 	popl	%edi
     59c:	5b 	popl	%ebx
     59d:	5d 	popl	%ebp
     59e:	c3 	retl
     59f:	ff 4b 10 	decl	16(%ebx)
     5a2:	89 de 	movl	%ebx, %esi
     5a4:	eb 87 	jmp	-121 <_hashtable_insert+0x1AD>
     5a6:	66 2e 0f 1f 84 00 00 00 00 00 	nopw	%cs:(%eax,%eax)

_hashtable_search:
     5b0:	55 	pushl	%ebp
     5b1:	89 e5 	movl	%esp, %ebp
     5b3:	53 	pushl	%ebx
     5b4:	57 	pushl	%edi
     5b5:	56 	pushl	%esi
     5b6:	83 ec 0c 	subl	$12, %esp
     5b9:	8b 45 0c 	movl	12(%ebp), %eax
     5bc:	8b 75 08 	movl	8(%ebp), %esi
     5bf:	89 04 24 	movl	%eax, (%esp)
     5c2:	ff 56 14 	calll	*20(%esi)
     5c5:	89 c1 	movl	%eax, %ecx
     5c7:	c1 e1 09 	shll	$9, %ecx
     5ca:	f7 d1 	notl	%ecx
     5cc:	01 c1 	addl	%eax, %ecx
     5ce:	89 c8 	movl	%ecx, %eax
     5d0:	c1 c0 12 	roll	$18, %eax
     5d3:	31 c8 	xorl	%ecx, %eax
     5d5:	89 c1 	movl	%eax, %ecx
     5d7:	c1 e1 04 	shll	$4, %ecx
     5da:	01 c1 	addl	%eax, %ecx
     5dc:	89 ca 	movl	%ecx, %edx
     5de:	c1 ea 0a 	shrl	$10, %edx
     5e1:	69 f8 00 00 40 04 	imull	$71303168, %eax, %edi
     5e7:	09 d7 	orl	%edx, %edi
     5e9:	31 cf 	xorl	%ecx, %edi
     5eb:	31 d2 	xorl	%edx, %edx
     5ed:	89 f8 	movl	%edi, %eax
     5ef:	f7 36 	divl	(%esi)
     5f1:	8b 46 04 	movl	4(%esi), %eax
     5f4:	8b 1c 90 	movl	(%eax,%edx,4), %ebx
     5f7:	85 db 	testl	%ebx, %ebx
     5f9:	75 0c 	jne	12 <_hashtable_search+0x57>
     5fb:	eb 27 	jmp	39 <_hashtable_search+0x74>
     5fd:	0f 1f 00 	nopl	(%eax)
     600:	8b 5b 0c 	movl	12(%ebx), %ebx
     603:	85 db 	testl	%ebx, %ebx
     605:	74 1d 	je	29 <_hashtable_search+0x74>
     607:	3b 7b 08 	cmpl	8(%ebx), %edi
     60a:	75 f4 	jne	-12 <_hashtable_search+0x50>
     60c:	8b 03 	movl	(%ebx), %eax
     60e:	89 44 24 04 	movl	%eax, 4(%esp)
     612:	8b 45 0c 	movl	12(%ebp), %eax
     615:	89 04 24 	movl	%eax, (%esp)
     618:	ff 56 18 	calll	*24(%esi)
     61b:	85 c0 	testl	%eax, %eax
     61d:	74 e1 	je	-31 <_hashtable_search+0x50>
     61f:	8b 43 04 	movl	4(%ebx), %eax
     622:	eb 02 	jmp	2 <_hashtable_search+0x76>
     624:	31 c0 	xorl	%eax, %eax
     626:	83 c4 0c 	addl	$12, %esp
     629:	5e 	popl	%esi
     62a:	5f 	popl	%edi
     62b:	5b 	popl	%ebx
     62c:	5d 	popl	%ebp
     62d:	c3 	retl
     62e:	66 90 	nop

_hashtable_remove:
     630:	55 	pushl	%ebp
     631:	89 e5 	movl	%esp, %ebp
     633:	53 	pushl	%ebx
     634:	57 	pushl	%edi
     635:	56 	pushl	%esi
     636:	83 ec 0c 	subl	$12, %esp
     639:	8b 5d 0c 	movl	12(%ebp), %ebx
     63c:	8b 7d 08 	movl	8(%ebp), %edi
     63f:	89 1c 24 	movl	%ebx, (%esp)
     642:	ff 57 14 	calll	*20(%edi)
     645:	89 45 f0 	movl	%eax, -16(%ebp)
     648:	8b 37 	movl	(%edi), %esi
     64a:	89 1c 24 	movl	%ebx, (%esp)
     64d:	ff 57 14 	calll	*20(%edi)
     650:	89 c1 	movl	%eax, %ecx
     652:	c1 e1 09 	shll	$9, %ecx
     655:	f7 d1 	notl	%ecx
     657:	01 c1 	addl	%eax, %ecx
     659:	89 ca 	movl	%ecx, %edx
     65b:	c1 c2 12 	roll	$18, %edx
     65e:	31 ca 	xorl	%ecx, %edx
     660:	89 d1 	movl	%edx, %ecx
     662:	c1 e1 04 	shll	$4, %ecx
     665:	01 d1 	addl	%edx, %ecx
     667:	89 c8 	movl	%ecx, %eax
     669:	c1 e8 0a 	shrl	$10, %eax
     66c:	69 d2 00 00 40 04 	imull	$71303168, %edx, %edx
     672:	09 d0 	orl	%edx, %eax
     674:	31 c8 	xorl	%ecx, %eax
     676:	31 c9 	xorl	%ecx, %ecx
     678:	31 d2 	xorl	%edx, %edx
     67a:	f7 f6 	divl	%esi
     67c:	8b 47 04 	movl	4(%edi), %eax
     67f:	8b 1c 90 	movl	(%eax,%edx,4), %ebx
     682:	85 db 	testl	%ebx, %ebx
     684:	0f 84 83 00 00 00 	je	131 <_hashtable_remove+0xDD>
     68a:	8b 75 f0 	movl	-16(%ebp), %esi
     68d:	89 f1 	movl	%esi, %ecx
     68f:	c1 e1 09 	shll	$9, %ecx
     692:	f7 d1 	notl	%ecx
     694:	01 f1 	addl	%esi, %ecx
     696:	89 ce 	movl	%ecx, %esi
     698:	c1 c6 12 	roll	$18, %esi
     69b:	31 ce 	xorl	%ecx, %esi
     69d:	89 f1 	movl	%esi, %ecx
     69f:	c1 e1 04 	shll	$4, %ecx
     6a2:	01 f1 	addl	%esi, %ecx
     6a4:	89 cf 	movl	%ecx, %edi
     6a6:	c1 ef 0a 	shrl	$10, %edi
     6a9:	69 f6 00 00 40 04 	imull	$71303168, %esi, %esi
     6af:	09 fe 	orl	%edi, %esi
     6b1:	31 ce 	xorl	%ecx, %esi
     6b3:	8d 3c 90 	leal	(%eax,%edx,4), %edi
     6b6:	66 2e 0f 1f 84 00 00 00 00 00 	nopw	%cs:(%eax,%eax)
     6c0:	3b 73 08 	cmpl	8(%ebx), %esi
     6c3:	75 16 	jne	22 <_hashtable_remove+0xAB>
     6c5:	8b 03 	movl	(%ebx), %eax
     6c7:	89 44 24 04 	movl	%eax, 4(%esp)
     6cb:	8b 45 0c 	movl	12(%ebp), %eax
     6ce:	89 04 24 	movl	%eax, (%esp)
     6d1:	8b 45 08 	movl	8(%ebp), %eax
     6d4:	ff 50 18 	calll	*24(%eax)
     6d7:	85 c0 	testl	%eax, %eax
     6d9:	75 10 	jne	16 <_hashtable_remove+0xBB>
     6db:	89 df 	movl	%ebx, %edi
     6dd:	8b 5b 0c 	movl	12(%ebx), %ebx
     6e0:	83 c7 0c 	addl	$12, %edi
     6e3:	85 db 	testl	%ebx, %ebx
     6e5:	75 d9 	jne	-39 <_hashtable_remove+0x90>
     6e7:	31 c9 	xorl	%ecx, %ecx
     6e9:	eb 22 	jmp	34 <_hashtable_remove+0xDD>
     6eb:	8b 43 0c 	movl	12(%ebx), %eax
     6ee:	89 07 	movl	%eax, (%edi)
     6f0:	8b 45 08 	movl	8(%ebp), %eax
     6f3:	ff 48 08 	decl	8(%eax)
     6f6:	8b 03 	movl	(%ebx), %eax
     6f8:	8b 73 04 	movl	4(%ebx), %esi
     6fb:	89 04 24 	movl	%eax, (%esp)
     6fe:	e8 fd f8 ff ff 	calll	-1795 <_create_hashtable>
     703:	89 1c 24 	movl	%ebx, (%esp)
     706:	e8 f5 f8 ff ff 	calll	-1803 <_create_hashtable>
     70b:	89 f1 	movl	%esi, %ecx
     70d:	89 c8 	movl	%ecx, %eax
     70f:	83 c4 0c 	addl	$12, %esp
     712:	5e 	popl	%esi
     713:	5f 	popl	%edi
     714:	5b 	popl	%ebx
     715:	5d 	popl	%ebp
     716:	c3 	retl
     717:	66 0f 1f 84 00 00 00 00 00 	nopw	(%eax,%eax)

_hashtable_destroy:
     720:	55 	pushl	%ebp
     721:	89 e5 	movl	%esp, %ebp
     723:	53 	pushl	%ebx
     724:	57 	pushl	%edi
     725:	56 	pushl	%esi
     726:	83 ec 0c 	subl	$12, %esp
     729:	8b 4d 08 	movl	8(%ebp), %ecx
     72c:	8b 01 	movl	(%ecx), %eax
     72e:	89 4d f0 	movl	%ecx, -16(%ebp)
     731:	8b 49 04 	movl	4(%ecx), %ecx
     734:	89 4d ec 	movl	%ecx, -20(%ebp)
     737:	83 7d 0c 00 	cmpl	$0, 12(%ebp)
     73b:	74 55 	je	85 <_hashtable_destroy+0x72>
     73d:	85 c0 	testl	%eax, %eax
     73f:	0f 84 90 00 00 00 	je	144 <_hashtable_destroy+0xB5>
     745:	31 db 	xorl	%ebx, %ebx
     747:	66 0f 1f 84 00 00 00 00 00 	nopw	(%eax,%eax)
     750:	8b 4d ec 	movl	-20(%ebp), %ecx
     753:	8b 34 99 	movl	(%ecx,%ebx,4), %esi
     756:	85 f6 	testl	%esi, %esi
     758:	74 31 	je	49 <_hashtable_destroy+0x6B>
     75a:	66 0f 1f 44 00 00 	nopw	(%eax,%eax)
     760:	8b 06 	movl	(%esi), %eax
     762:	8b 7e 0c 	movl	12(%esi), %edi
     765:	89 04 24 	movl	%eax, (%esp)
     768:	e8 93 f8 ff ff 	calll	-1901 <_create_hashtable>
     76d:	8b 46 04 	movl	4(%esi), %eax
     770:	89 04 24 	movl	%eax, (%esp)
     773:	e8 88 f8 ff ff 	calll	-1912 <_create_hashtable>
     778:	89 34 24 	movl	%esi, (%esp)
     77b:	e8 80 f8 ff ff 	calll	-1920 <_create_hashtable>
     780:	85 ff 	testl	%edi, %edi
     782:	89 fe 	movl	%edi, %esi
     784:	75 da 	jne	-38 <_hashtable_destroy+0x40>
     786:	8b 45 f0 	movl	-16(%ebp), %eax
     789:	8b 00 	movl	(%eax), %eax
     78b:	43 	incl	%ebx
     78c:	39 c3 	cmpl	%eax, %ebx
     78e:	72 c0 	jb	-64 <_hashtable_destroy+0x30>
     790:	eb 43 	jmp	67 <_hashtable_destroy+0xB5>
     792:	85 c0 	testl	%eax, %eax
     794:	74 3f 	je	63 <_hashtable_destroy+0xB5>
     796:	31 db 	xorl	%ebx, %ebx
     798:	0f 1f 84 00 00 00 00 00 	nopl	(%eax,%eax)
     7a0:	8b 4d ec 	movl	-20(%ebp), %ecx
     7a3:	8b 34 99 	movl	(%ecx,%ebx,4), %esi
     7a6:	85 f6 	testl	%esi, %esi
     7a8:	74 26 	je	38 <_hashtable_destroy+0xB0>
     7aa:	66 0f 1f 44 00 00 	nopw	(%eax,%eax)
     7b0:	8b 06 	movl	(%esi), %eax
     7b2:	8b 7e 0c 	movl	12(%esi), %edi
     7b5:	89 04 24 	movl	%eax, (%esp)
     7b8:	e8 43 f8 ff ff 	calll	-1981 <_create_hashtable>
     7bd:	89 34 24 	movl	%esi, (%esp)
     7c0:	e8 3b f8 ff ff 	calll	-1989 <_create_hashtable>
     7c5:	85 ff 	testl	%edi, %edi
     7c7:	89 fe 	movl	%edi, %esi
     7c9:	75 e5 	jne	-27 <_hashtable_destroy+0x90>
     7cb:	8b 45 f0 	movl	-16(%ebp), %eax
     7ce:	8b 00 	movl	(%eax), %eax
     7d0:	43 	incl	%ebx
     7d1:	39 c3 	cmpl	%eax, %ebx
     7d3:	72 cb 	jb	-53 <_hashtable_destroy+0x80>
     7d5:	8b 45 f0 	movl	-16(%ebp), %eax
     7d8:	8b 40 04 	movl	4(%eax), %eax
     7db:	89 04 24 	movl	%eax, (%esp)
     7de:	e8 1d f8 ff ff 	calll	-2019 <_create_hashtable>
     7e3:	83 c4 0c 	addl	$12, %esp
     7e6:	5e 	popl	%esi
     7e7:	5f 	popl	%edi
     7e8:	5b 	popl	%ebx
     7e9:	5d 	popl	%ebp
     7ea:	e9 11 f8 ff ff 	jmp	-2031 <_create_hashtable>

runtime/libpyyruntime.a(hashtable_itr.o):	file format Mach-O 32-bit i386

Disassembly of section __TEXT,__text:
_hashtable_iterator:
       0:	55 	pushl	%ebp
       1:	89 e5 	movl	%esp, %ebp
       3:	57 	pushl	%edi
       4:	56 	pushl	%esi
       5:	83 ec 10 	subl	$16, %esp
       8:	c7 04 24 10 00 00 00 	movl	$16, (%esp)
       f:	e8 ec ff ff ff 	calll	-20 <_hashtable_iterator>
      14:	85 c0 	testl	%eax, %eax
      16:	74 36 	je	54 <_hashtable_iterator+0x4E>
      18:	8b 55 08 	movl	8(%ebp), %edx
      1b:	89 10 	movl	%edx, (%eax)
      1d:	c7 40 04 00 00 00 00 	movl	$0, 4(%eax)
      24:	c7 40 08 00 00 00 00 	movl	$0, 8(%eax)
      2b:	8b 0a 	movl	(%edx), %ecx
      2d:	89 48 0c 	movl	%ecx, 12(%eax)
      30:	83 7a 08 00 	cmpl	$0, 8(%edx)
      34:	74 22 	je	34 <_hashtable_iterator+0x58>
      36:	85 c9 	testl	%ecx, %ecx
      38:	74 1e 	je	30 <_hashtable_iterator+0x58>
      3a:	8b 72 04 	movl	4(%edx), %esi
      3d:	31 d2 	xorl	%edx, %edx
      3f:	90 	nop
      40:	8b 3c 96 	movl	(%esi,%edx,4), %edi
      43:	85 ff 	testl	%edi, %edi
      45:	75 0b 	jne	11 <_hashtable_iterator+0x52>
      47:	42 	incl	%edx
      48:	39 ca 	cmpl	%ecx, %edx
      4a:	72 f4 	jb	-12 <_hashtable_iterator+0x40>
      4c:	eb 0a 	jmp	10 <_hashtable_iterator+0x58>
      4e:	31 c0 	xorl	%eax, %eax
      50:	eb 06 	jmp	6 <_hashtable_iterator+0x58>
      52:	89 78 04 	movl	%edi, 4(%eax)
      55:	89 50 0c 	movl	%edx, 12(%eax)
      58:	83 c4 10 	addl	$16, %esp
      5b:	5e 	popl	%esi
      5c:	5f 	popl	%edi
      5d:	5d 	popl	%ebp
      5e:	c3 	retl
      5f:	90 	nop

_hashtable_iterator_advance:
      60:	55 	pushl	%ebp
      61:	89 e5 	movl	%esp, %ebp
      63:	53 	pushl	%ebx
      64:	57 	pushl	%edi
      65:	56 	pushl	%esi
      66:	8b 4d 08 	movl	8(%ebp), %ecx
      69:	8b 51 04 	movl	4(%ecx), %edx
      6c:	31 c0 	xorl	%eax, %eax
      6e:	85 d2 	testl	%edx, %edx
      70:	74 44 	je	68 <_hashtable_iterator_advance+0x56>
      72:	8b 72 0c 	movl	12(%edx), %esi
      75:	85 f6 	testl	%esi, %esi
      77:	74 0d 	je	13 <_hashtable_iterator_advance+0x26>
      79:	89 51 08 	movl	%edx, 8(%ecx)
      7c:	89 71 04 	movl	%esi, 4(%ecx)
      7f:	b8 ff ff ff ff 	movl	$4294967295, %eax
      84:	eb 30 	jmp	48 <_hashtable_iterator_advance+0x56>
      86:	8b 39 	movl	(%ecx), %edi
      88:	8b 17 	movl	(%edi), %edx
      8a:	c7 41 08 00 00 00 00 	movl	$0, 8(%ecx)
      91:	8b 71 0c 	movl	12(%ecx), %esi
      94:	46 	incl	%esi
      95:	89 71 0c 	movl	%esi, 12(%ecx)
      98:	39 f2 	cmpl	%esi, %edx
      9a:	76 13 	jbe	19 <_hashtable_iterator_advance+0x4F>
      9c:	8b 7f 04 	movl	4(%edi), %edi
      9f:	90 	nop
      a0:	8b 1c b7 	movl	(%edi,%esi,4), %ebx
      a3:	85 db 	testl	%ebx, %ebx
      a5:	75 14 	jne	20 <_hashtable_iterator_advance+0x5B>
      a7:	46 	incl	%esi
      a8:	39 d6 	cmpl	%edx, %esi
      aa:	72 f4 	jb	-12 <_hashtable_iterator_advance+0x40>
      ac:	89 51 0c 	movl	%edx, 12(%ecx)
      af:	c7 41 04 00 00 00 00 	movl	$0, 4(%ecx)
      b6:	5e 	popl	%esi
      b7:	5f 	popl	%edi
      b8:	5b 	popl	%ebx
      b9:	5d 	popl	%ebp
      ba:	c3 	retl
      bb:	89 71 0c 	movl	%esi, 12(%ecx)
      be:	89 59 04 	movl	%ebx, 4(%ecx)
      c1:	eb bc 	jmp	-68 <_hashtable_iterator_advance+0x1F>
      c3:	66 66 66 66 2e 0f 1f 84 00 00 00 00 00 	nopw	%cs:(%eax,%eax)

_hashtable_iterator_remove:
      d0:	55 	pushl	%ebp
      d1:	89 e5 	movl	%esp, %ebp
      d3:	53 	pushl	%ebx
      d4:	57 	pushl	%edi
      d5:	56 	pushl	%esi
      d6:	83 ec 0c 	subl	$12, %esp
      d9:	8b 7d 08 	movl	8(%ebp), %edi
      dc:	8b 5f 04 	movl	4(%edi), %ebx
      df:	8b 4f 08 	movl	8(%edi), %ecx
      e2:	85 c9 	testl	%ecx, %ecx
      e4:	8b 43 0c 	movl	12(%ebx), %eax
      e7:	74 05 	je	5 <_hashtable_iterator_remove+0x1E>
      e9:	89 41 0c 	movl	%eax, 12(%ecx)
      ec:	eb 0e 	jmp	14 <_hashtable_iterator_remove+0x2C>
      ee:	8b 0f 	movl	(%edi), %ecx
      f0:	8b 57 0c 	movl	12(%edi), %edx
      f3:	8b 49 04 	movl	4(%ecx), %ecx
      f6:	89 04 91 	movl	%eax, (%ecx,%edx,4)
      f9:	8b 5f 04 	movl	4(%edi), %ebx
      fc:	8b 07 	movl	(%edi), %eax
      fe:	ff 48 08 	decl	8(%eax)
     101:	8b 03 	movl	(%ebx), %eax
     103:	89 04 24 	movl	%eax, (%esp)
     106:	e8 f5 fe ff ff 	calll	-267 <_hashtable_iterator>
     10b:	8b 4f 04 	movl	4(%edi), %ecx
     10e:	8b 47 08 	movl	8(%edi), %eax
     111:	85 c9 	testl	%ecx, %ecx
     113:	74 18 	je	24 <_hashtable_iterator_remove+0x5D>
     115:	8b 51 0c 	movl	12(%ecx), %edx
     118:	85 d2 	testl	%edx, %edx
     11a:	74 1b 	je	27 <_hashtable_iterator_remove+0x67>
     11c:	89 4f 08 	movl	%ecx, 8(%edi)
     11f:	89 57 04 	movl	%edx, 4(%edi)
     122:	be ff ff ff ff 	movl	$4294967295, %esi
     127:	39 d9 	cmpl	%ebx, %ecx
     129:	75 79 	jne	121 <_hashtable_iterator_remove+0xD4>
     12b:	eb 74 	jmp	116 <_hashtable_iterator_remove+0xD1>
     12d:	31 f6 	xorl	%esi, %esi
     12f:	89 c1 	movl	%eax, %ecx
     131:	39 d9 	cmpl	%ebx, %ecx
     133:	75 6f 	jne	111 <_hashtable_iterator_remove+0xD4>
     135:	eb 6a 	jmp	106 <_hashtable_iterator_remove+0xD1>
     137:	8b 37 	movl	(%edi), %esi
     139:	8b 0e 	movl	(%esi), %ecx
     13b:	c7 47 08 00 00 00 00 	movl	$0, 8(%edi)
     142:	8b 57 0c 	movl	12(%edi), %edx
     145:	42 	incl	%edx
     146:	89 57 0c 	movl	%edx, 12(%edi)
     149:	39 d1 	cmpl	%edx, %ecx
     14b:	76 2f 	jbe	47 <_hashtable_iterator_remove+0xAC>
     14d:	89 45 f0 	movl	%eax, -16(%ebp)
     150:	8b 76 04 	movl	4(%esi), %esi
     153:	66 66 66 66 2e 0f 1f 84 00 00 00 00 00 	nopw	%cs:(%eax,%eax)
     160:	8b 04 96 	movl	(%esi,%edx,4), %eax
     163:	85 c0 	testl	%eax, %eax
     165:	75 26 	jne	38 <_hashtable_iterator_remove+0xBD>
     167:	42 	incl	%edx
     168:	39 ca 	cmpl	%ecx, %edx
     16a:	72 f4 	jb	-12 <_hashtable_iterator_remove+0x90>
     16c:	89 4f 0c 	movl	%ecx, 12(%edi)
     16f:	c7 47 04 00 00 00 00 	movl	$0, 4(%edi)
     176:	31 c9 	xorl	%ecx, %ecx
     178:	31 f6 	xorl	%esi, %esi
     17a:	eb 1e 	jmp	30 <_hashtable_iterator_remove+0xCA>
     17c:	c7 47 04 00 00 00 00 	movl	$0, 4(%edi)
     183:	31 c9 	xorl	%ecx, %ecx
     185:	31 f6 	xorl	%esi, %esi
     187:	39 d9 	cmpl	%ebx, %ecx
     189:	75 19 	jne	25 <_hashtable_iterator_remove+0xD4>
     18b:	eb 14 	jmp	20 <_hashtable_iterator_remove+0xD1>
     18d:	89 57 0c 	movl	%edx, 12(%edi)
     190:	89 47 04 	movl	%eax, 4(%edi)
     193:	be ff ff ff ff 	movl	$4294967295, %esi
     198:	31 c9 	xorl	%ecx, %ecx
     19a:	8b 45 f0 	movl	-16(%ebp), %eax
     19d:	39 d9 	cmpl	%ebx, %ecx
     19f:	75 03 	jne	3 <_hashtable_iterator_remove+0xD4>
     1a1:	89 47 08 	movl	%eax, 8(%edi)
     1a4:	89 1c 24 	movl	%ebx, (%esp)
     1a7:	e8 54 fe ff ff 	calll	-428 <_hashtable_iterator>
     1ac:	89 f0 	movl	%esi, %eax
     1ae:	83 c4 0c 	addl	$12, %esp
     1b1:	5e 	popl	%esi
     1b2:	5f 	popl	%edi
     1b3:	5b 	popl	%ebx
     1b4:	5d 	popl	%ebp
     1b5:	c3 	retl
     1b6:	66 2e 0f 1f 84 00 00 00 00 00 	nopw	%cs:(%eax,%eax)

_hashtable_iterator_search:
     1c0:	55 	pushl	%ebp
     1c1:	89 e5 	movl	%esp, %ebp
     1c3:	53 	pushl	%ebx
     1c4:	57 	pushl	%edi
     1c5:	56 	pushl	%esi
     1c6:	83 ec 0c 	subl	$12, %esp
     1c9:	8b 7d 0c 	movl	12(%ebp), %edi
     1cc:	83 ec 08 	subl	$8, %esp
     1cf:	ff 75 10 	pushl	16(%ebp)
     1d2:	57 	pushl	%edi
     1d3:	e8 28 fe ff ff 	calll	-472 <_hashtable_iterator>
     1d8:	83 c4 10 	addl	$16, %esp
     1db:	89 c6 	movl	%eax, %esi
     1dd:	31 c9 	xorl	%ecx, %ecx
     1df:	31 d2 	xorl	%edx, %edx
     1e1:	f7 37 	divl	(%edi)
     1e3:	8b 47 04 	movl	4(%edi), %eax
     1e6:	8b 04 90 	movl	(%eax,%edx,4), %eax
     1e9:	85 c0 	testl	%eax, %eax
     1eb:	74 55 	je	85 <_hashtable_iterator_search+0x82>
     1ed:	89 55 f0 	movl	%edx, -16(%ebp)
     1f0:	31 ff 	xorl	%edi, %edi
     1f2:	66 66 66 66 66 2e 0f 1f 84 00 00 00 00 00 	nopw	%cs:(%eax,%eax)
     200:	89 c3 	movl	%eax, %ebx
     202:	3b 73 08 	cmpl	8(%ebx), %esi
     205:	75 15 	jne	21 <_hashtable_iterator_search+0x5C>
     207:	83 ec 08 	subl	$8, %esp
     20a:	ff 33 	pushl	(%ebx)
     20c:	ff 75 10 	pushl	16(%ebp)
     20f:	8b 45 0c 	movl	12(%ebp), %eax
     212:	ff 50 18 	calll	*24(%eax)
     215:	83 c4 10 	addl	$16, %esp
     218:	85 c0 	testl	%eax, %eax
     21a:	75 0d 	jne	13 <_hashtable_iterator_search+0x69>
     21c:	8b 43 0c 	movl	12(%ebx), %eax
     21f:	85 c0 	testl	%eax, %eax
     221:	89 df 	movl	%ebx, %edi
     223:	75 db 	jne	-37 <_hashtable_iterator_search+0x40>
     225:	31 c9 	xorl	%ecx, %ecx
     227:	eb 19 	jmp	25 <_hashtable_iterator_search+0x82>
     229:	8b 45 f0 	movl	-16(%ebp), %eax
     22c:	8b 4d 08 	movl	8(%ebp), %ecx
     22f:	89 41 0c 	movl	%eax, 12(%ecx)
     232:	89 59 04 	movl	%ebx, 4(%ecx)
     235:	89 79 08 	movl	%edi, 8(%ecx)
     238:	8b 45 0c 	movl	12(%ebp), %eax
     23b:	89 01 	movl	%eax, (%ecx)
     23d:	b9 ff ff ff ff 	movl	$4294967295, %ecx
     242:	89 c8 	movl	%ecx, %eax
     244:	83 c4 0c 	addl	$12, %esp
     247:	5e 	popl	%esi
     248:	5f 	popl	%edi
     249:	5b 	popl	%ebx
     24a:	5d 	popl	%ebp
     24b:	c3 	retl

runtime/libpyyruntime.a(hashtable_utility.o):	file format Mach-O 32-bit i386

Disassembly of section __TEXT,__text:
_hashtable_change:
       0:	55 	pushl	%ebp
       1:	89 e5 	movl	%esp, %ebp
       3:	53 	pushl	%ebx
       4:	57 	pushl	%edi
       5:	56 	pushl	%esi
       6:	83 ec 0c 	subl	$12, %esp
       9:	8b 45 0c 	movl	12(%ebp), %eax
       c:	8b 75 08 	movl	8(%ebp), %esi
       f:	89 44 24 04 	movl	%eax, 4(%esp)
      13:	89 34 24 	movl	%esi, (%esp)
      16:	e8 e5 ff ff ff 	calll	-27 <_hashtable_change>
      1b:	89 c7 	movl	%eax, %edi
      1d:	31 d2 	xorl	%edx, %edx
      1f:	f7 36 	divl	(%esi)
      21:	8b 46 04 	movl	4(%esi), %eax
      24:	8b 1c 90 	movl	(%eax,%edx,4), %ebx
      27:	85 db 	testl	%ebx, %ebx
      29:	75 0c 	jne	12 <_hashtable_change+0x37>
      2b:	eb 3a 	jmp	58 <_hashtable_change+0x67>
      2d:	0f 1f 00 	nopl	(%eax)
      30:	8b 5b 0c 	movl	12(%ebx), %ebx
      33:	85 db 	testl	%ebx, %ebx
      35:	74 30 	je	48 <_hashtable_change+0x67>
      37:	3b 7b 08 	cmpl	8(%ebx), %edi
      3a:	75 f4 	jne	-12 <_hashtable_change+0x30>
      3c:	8b 03 	movl	(%ebx), %eax
      3e:	89 44 24 04 	movl	%eax, 4(%esp)
      42:	8b 45 0c 	movl	12(%ebp), %eax
      45:	89 04 24 	movl	%eax, (%esp)
      48:	ff 56 18 	calll	*24(%esi)
      4b:	85 c0 	testl	%eax, %eax
      4d:	74 e1 	je	-31 <_hashtable_change+0x30>
      4f:	8b 43 04 	movl	4(%ebx), %eax
      52:	89 04 24 	movl	%eax, (%esp)
      55:	e8 a6 ff ff ff 	calll	-90 <_hashtable_change>
      5a:	8b 45 10 	movl	16(%ebp), %eax
      5d:	89 43 04 	movl	%eax, 4(%ebx)
      60:	b8 ff ff ff ff 	movl	$4294967295, %eax
      65:	eb 02 	jmp	2 <_hashtable_change+0x69>
      67:	31 c0 	xorl	%eax, %eax
      69:	83 c4 0c 	addl	$12, %esp
      6c:	5e 	popl	%esi
      6d:	5f 	popl	%edi
      6e:	5b 	popl	%ebx
      6f:	5d 	popl	%ebp
      70:	c3 	retl

runtime/libpyyruntime.a(runtime.o):	file format Mach-O 32-bit i386

Disassembly of section __TEXT,__text:
_min:
       0:	55 	pushl	%ebp
       1:	89 e5 	movl	%esp, %ebp
       3:	8b 45 08 	movl	8(%ebp), %eax
       6:	8b 4d 0c 	movl	12(%ebp), %ecx
       9:	39 c1 	cmpl	%eax, %ecx
       b:	0f 4e c1 	cmovlel	%ecx, %eax
       e:	5d 	popl	%ebp
       f:	c3 	retl

_tag:
      10:	55 	pushl	%ebp
      11:	89 e5 	movl	%esp, %ebp
      13:	8b 45 08 	movl	8(%ebp), %eax
      16:	83 e0 03 	andl	$3, %eax
      19:	5d 	popl	%ebp
      1a:	c3 	retl
      1b:	0f 1f 44 00 00 	nopl	(%eax,%eax)

_is_int:
      20:	55 	pushl	%ebp
      21:	89 e5 	movl	%esp, %ebp
      23:	31 c0 	xorl	%eax, %eax
      25:	f6 45 08 03 	testb	$3, 8(%ebp)
      29:	0f 94 c0 	sete	%al
      2c:	5d 	popl	%ebp
      2d:	c3 	retl
      2e:	66 90 	nop

_is_bool:
      30:	55 	pushl	%ebp
      31:	89 e5 	movl	%esp, %ebp
      33:	8b 4d 08 	movl	8(%ebp), %ecx
      36:	83 e1 03 	andl	$3, %ecx
      39:	31 c0 	xorl	%eax, %eax
      3b:	83 f9 01 	cmpl	$1, %ecx
      3e:	0f 94 c0 	sete	%al
      41:	5d 	popl	%ebp
      42:	c3 	retl
      43:	66 66 66 66 2e 0f 1f 84 00 00 00 00 00 	nopw	%cs:(%eax,%eax)

_is_float:
      50:	55 	pushl	%ebp
      51:	89 e5 	movl	%esp, %ebp
      53:	8b 4d 08 	movl	8(%ebp), %ecx
      56:	83 e1 03 	andl	$3, %ecx
      59:	31 c0 	xorl	%eax, %eax
      5b:	83 f9 02 	cmpl	$2, %ecx
      5e:	0f 94 c0 	sete	%al
      61:	5d 	popl	%ebp
      62:	c3 	retl
      63:	66 66 66 66 2e 0f 1f 84 00 00 00 00 00 	nopw	%cs:(%eax,%eax)

_is_big:
      70:	55 	pushl	%ebp
      71:	89 e5 	movl	%esp, %ebp
      73:	8b 4d 08 	movl	8(%ebp), %ecx
      76:	83 e1 03 	andl	$3, %ecx
      79:	31 c0 	xorl	%eax, %eax
      7b:	83 f9 03 	cmpl	$3, %ecx
      7e:	0f 94 c0 	sete	%al
      81:	5d 	popl	%ebp
      82:	c3 	retl
      83:	66 66 66 66 2e 0f 1f 84 00 00 00 00 00 	nopw	%cs:(%eax,%eax)

_is_function:
      90:	55 	pushl	%ebp
      91:	89 e5 	movl	%esp, %ebp
      93:	8b 4d 08 	movl	8(%ebp), %ecx
      96:	89 ca 	movl	%ecx, %edx
      98:	83 e2 03 	andl	$3, %edx
      9b:	31 c0 	xorl	%eax, %eax
      9d:	83 fa 03 	cmpl	$3, %edx
      a0:	75 0b 	jne	11 <_is_function+0x1D>
      a2:	83 e1 fc 	andl	$-4, %ecx
      a5:	31 c0 	xorl	%eax, %eax
      a7:	83 39 02 	cmpl	$2, (%ecx)
      aa:	0f 94 c0 	sete	%al
      ad:	5d 	popl	%ebp
      ae:	c3 	retl
      af:	90 	nop

_project_big:
      b0:	55 	pushl	%ebp
      b1:	89 e5 	movl	%esp, %ebp
      b3:	83 ec 08 	subl	$8, %esp
      b6:	e8 00 00 00 00 	calll	0 <_project_big+0xB>
      bb:	59 	popl	%ecx
      bc:	8b 45 08 	movl	8(%ebp), %eax
      bf:	89 c2 	movl	%eax, %edx
      c1:	83 e2 03 	andl	$3, %edx
      c4:	83 fa 03 	cmpl	$3, %edx
      c7:	75 08 	jne	8 <_project_big+0x21>
      c9:	83 e0 fc 	andl	$-4, %eax
      cc:	83 c4 08 	addl	$8, %esp
      cf:	5d 	popl	%ebp
      d0:	c3 	retl
      d1:	8d 81 80 1e 00 00 	leal	7808(%ecx), %eax
      d7:	8d 91 e0 1d 00 00 	leal	7648(%ecx), %edx
      dd:	8d 89 74 1e 00 00 	leal	7796(%ecx), %ecx
      e3:	50 	pushl	%eax
      e4:	6a 5c 	pushl	$92
      e6:	52 	pushl	%edx
      e7:	51 	pushl	%ecx
      e8:	e8 13 ff ff ff 	calll	-237 <_min>
      ed:	0f 1f 00 	nopl	(%eax)

_is_object:
      f0:	55 	pushl	%ebp
      f1:	89 e5 	movl	%esp, %ebp
      f3:	8b 45 08 	movl	8(%ebp), %eax
      f6:	89 c1 	movl	%eax, %ecx
      f8:	83 e1 03 	andl	$3, %ecx
      fb:	83 f9 03 	cmpl	$3, %ecx
      fe:	75 0b 	jne	11 <_is_object+0x1B>
     100:	83 e0 fc 	andl	$-4, %eax
     103:	83 38 04 	cmpl	$4, (%eax)
     106:	0f 94 c0 	sete	%al
     109:	eb 02 	jmp	2 <_is_object+0x1D>
     10b:	31 c0 	xorl	%eax, %eax
     10d:	0f b6 c0 	movzbl	%al, %eax
     110:	5d 	popl	%ebp
     111:	c3 	retl
     112:	66 66 66 66 66 2e 0f 1f 84 00 00 00 00 00 	nopw	%cs:(%eax,%eax)

_is_class:
     120:	55 	pushl	%ebp
     121:	89 e5 	movl	%esp, %ebp
     123:	8b 45 08 	movl	8(%ebp), %eax
     126:	89 c1 	movl	%eax, %ecx
     128:	83 e1 03 	andl	$3, %ecx
     12b:	83 f9 03 	cmpl	$3, %ecx
     12e:	75 0b 	jne	11 <_is_class+0x1B>
     130:	83 e0 fc 	andl	$-4, %eax
     133:	83 38 03 	cmpl	$3, (%eax)
     136:	0f 94 c0 	sete	%al
     139:	eb 02 	jmp	2 <_is_class+0x1D>
     13b:	31 c0 	xorl	%eax, %eax
     13d:	0f b6 c0 	movzbl	%al, %eax
     140:	5d 	popl	%ebp
     141:	c3 	retl
     142:	66 66 66 66 66 2e 0f 1f 84 00 00 00 00 00 	nopw	%cs:(%eax,%eax)

_is_unbound_method:
     150:	55 	pushl	%ebp
     151:	89 e5 	movl	%esp, %ebp
     153:	8b 45 08 	movl	8(%ebp), %eax
     156:	89 c1 	movl	%eax, %ecx
     158:	83 e1 03 	andl	$3, %ecx
     15b:	83 f9 03 	cmpl	$3, %ecx
     15e:	75 0b 	jne	11 <_is_unbound_method+0x1B>
     160:	83 e0 fc 	andl	$-4, %eax
     163:	83 38 05 	cmpl	$5, (%eax)
     166:	0f 94 c0 	sete	%al
     169:	eb 02 	jmp	2 <_is_unbound_method+0x1D>
     16b:	31 c0 	xorl	%eax, %eax
     16d:	0f b6 c0 	movzbl	%al, %eax
     170:	5d 	popl	%ebp
     171:	c3 	retl
     172:	66 66 66 66 66 2e 0f 1f 84 00 00 00 00 00 	nopw	%cs:(%eax,%eax)

_is_bound_method:
     180:	55 	pushl	%ebp
     181:	89 e5 	movl	%esp, %ebp
     183:	8b 45 08 	movl	8(%ebp), %eax
     186:	89 c1 	movl	%eax, %ecx
     188:	83 e1 03 	andl	$3, %ecx
     18b:	83 f9 03 	cmpl	$3, %ecx
     18e:	75 0b 	jne	11 <_is_bound_method+0x1B>
     190:	83 e0 fc 	andl	$-4, %eax
     193:	83 38 06 	cmpl	$6, (%eax)
     196:	0f 94 c0 	sete	%al
     199:	eb 02 	jmp	2 <_is_bound_method+0x1D>
     19b:	31 c0 	xorl	%eax, %eax
     19d:	0f b6 c0 	movzbl	%al, %eax
     1a0:	5d 	popl	%ebp
     1a1:	c3 	retl
     1a2:	66 66 66 66 66 2e 0f 1f 84 00 00 00 00 00 	nopw	%cs:(%eax,%eax)

_inject_int:
     1b0:	55 	pushl	%ebp
     1b1:	89 e5 	movl	%esp, %ebp
     1b3:	8b 45 08 	movl	8(%ebp), %eax
     1b6:	c1 e0 02 	shll	$2, %eax
     1b9:	5d 	popl	%ebp
     1ba:	c3 	retl
     1bb:	0f 1f 44 00 00 	nopl	(%eax,%eax)

_inject_bool:
     1c0:	55 	pushl	%ebp
     1c1:	89 e5 	movl	%esp, %ebp
     1c3:	8b 45 08 	movl	8(%ebp), %eax
     1c6:	8d 04 85 01 00 00 00 	leal	1(,%eax,4), %eax
     1cd:	5d 	popl	%ebp
     1ce:	c3 	retl
     1cf:	90 	nop

_inject_float:
     1d0:	55 	pushl	%ebp
     1d1:	89 e5 	movl	%esp, %ebp
     1d3:	8b 45 08 	movl	8(%ebp), %eax
     1d6:	83 e0 fc 	andl	$-4, %eax
     1d9:	83 c8 02 	orl	$2, %eax
     1dc:	5d 	popl	%ebp
     1dd:	c3 	retl
     1de:	66 90 	nop

_inject_big:
     1e0:	55 	pushl	%ebp
     1e1:	89 e5 	movl	%esp, %ebp
     1e3:	83 ec 08 	subl	$8, %esp
     1e6:	e8 00 00 00 00 	calll	0 <_inject_big+0xB>
     1eb:	59 	popl	%ecx
     1ec:	8b 45 08 	movl	8(%ebp), %eax
     1ef:	a8 03 	testb	$3, %al
     1f1:	75 08 	jne	8 <_inject_big+0x1B>
     1f3:	83 c8 03 	orl	$3, %eax
     1f6:	83 c4 08 	addl	$8, %esp
     1f9:	5d 	popl	%ebp
     1fa:	c3 	retl
     1fb:	8d 81 ba 1c 00 00 	leal	7354(%ecx), %eax
     201:	8d 91 b0 1c 00 00 	leal	7344(%ecx), %edx
     207:	8d 89 a5 1c 00 00 	leal	7333(%ecx), %ecx
     20d:	50 	pushl	%eax
     20e:	6a 49 	pushl	$73
     210:	52 	pushl	%edx
     211:	51 	pushl	%ecx
     212:	e8 e9 fd ff ff 	calll	-535 <_min>
     217:	66 0f 1f 84 00 00 00 00 00 	nopw	(%eax,%eax)

_project_int:
     220:	55 	pushl	%ebp
     221:	89 e5 	movl	%esp, %ebp
     223:	83 ec 08 	subl	$8, %esp
     226:	e8 00 00 00 00 	calll	0 <_project_int+0xB>
     22b:	59 	popl	%ecx
     22c:	8b 45 08 	movl	8(%ebp), %eax
     22f:	a8 03 	testb	$3, %al
     231:	75 08 	jne	8 <_project_int+0x1B>
     233:	c1 f8 02 	sarl	$2, %eax
     236:	83 c4 08 	addl	$8, %esp
     239:	5d 	popl	%ebp
     23a:	c3 	retl
     23b:	8d 81 9e 1c 00 00 	leal	7326(%ecx), %eax
     241:	8d 91 70 1c 00 00 	leal	7280(%ecx), %edx
     247:	8d 89 92 1c 00 00 	leal	7314(%ecx), %ecx
     24d:	50 	pushl	%eax
     24e:	6a 50 	pushl	$80
     250:	52 	pushl	%edx
     251:	51 	pushl	%ecx
     252:	e8 a9 fd ff ff 	calll	-599 <_min>
     257:	66 0f 1f 84 00 00 00 00 00 	nopw	(%eax,%eax)

_project_bool:
     260:	55 	pushl	%ebp
     261:	89 e5 	movl	%esp, %ebp
     263:	83 ec 08 	subl	$8, %esp
     266:	e8 00 00 00 00 	calll	0 <_project_bool+0xB>
     26b:	59 	popl	%ecx
     26c:	8b 45 08 	movl	8(%ebp), %eax
     26f:	89 c2 	movl	%eax, %edx
     271:	83 e2 03 	andl	$3, %edx
     274:	83 fa 01 	cmpl	$1, %edx
     277:	75 08 	jne	8 <_project_bool+0x21>
     279:	c1 f8 02 	sarl	$2, %eax
     27c:	83 c4 08 	addl	$8, %esp
     27f:	5d 	popl	%ebp
     280:	c3 	retl
     281:	8d 81 83 1c 00 00 	leal	7299(%ecx), %eax
     287:	8d 91 30 1c 00 00 	leal	7216(%ecx), %edx
     28d:	8d 89 76 1c 00 00 	leal	7286(%ecx), %ecx
     293:	50 	pushl	%eax
     294:	6a 54 	pushl	$84
     296:	52 	pushl	%edx
     297:	51 	pushl	%ecx
     298:	e8 63 fd ff ff 	calll	-669 <_min>
     29d:	0f 1f 00 	nopl	(%eax)

_project_float:
     2a0:	55 	pushl	%ebp
     2a1:	89 e5 	movl	%esp, %ebp
     2a3:	83 ec 08 	subl	$8, %esp
     2a6:	e8 00 00 00 00 	calll	0 <_project_float+0xB>
     2ab:	58 	popl	%eax
     2ac:	8b 4d 08 	movl	8(%ebp), %ecx
     2af:	89 ca 	movl	%ecx, %edx
     2b1:	83 e2 03 	andl	$3, %edx
     2b4:	83 fa 02 	cmpl	$2, %edx
     2b7:	75 14 	jne	20 <_project_float+0x2D>
     2b9:	83 e1 fc 	andl	$-4, %ecx
     2bc:	f3 0f 2a c1 	cvtsi2ssl	%ecx, %xmm0
     2c0:	f3 0f 11 45 fc 	movss	%xmm0, -4(%ebp)
     2c5:	d9 45 fc 	flds	-4(%ebp)
     2c8:	83 c4 08 	addl	$8, %esp
     2cb:	5d 	popl	%ebp
     2cc:	c3 	retl
     2cd:	8d 88 6a 1c 00 00 	leal	7274(%eax), %ecx
     2d3:	8d 90 f0 1b 00 00 	leal	7152(%eax), %edx
     2d9:	8d 80 5c 1c 00 00 	leal	7260(%eax), %eax
     2df:	51 	pushl	%ecx
     2e0:	6a 58 	pushl	$88
     2e2:	52 	pushl	%edx
     2e3:	50 	pushl	%eax
     2e4:	e8 17 fd ff ff 	calll	-745 <_min>
     2e9:	0f 1f 80 00 00 00 00 	nopl	(%eax)

_project_function:
     2f0:	55 	pushl	%ebp
     2f1:	89 e5 	movl	%esp, %ebp
     2f3:	83 ec 08 	subl	$8, %esp
     2f6:	e8 00 00 00 00 	calll	0 <_project_function+0xB>
     2fb:	58 	popl	%eax
     2fc:	8b 4d 08 	movl	8(%ebp), %ecx
     2ff:	89 ca 	movl	%ecx, %edx
     301:	83 e2 03 	andl	$3, %edx
     304:	83 fa 03 	cmpl	$3, %edx
     307:	75 13 	jne	19 <_project_function+0x2C>
     309:	83 e1 fc 	andl	$-4, %ecx
     30c:	83 39 02 	cmpl	$2, (%ecx)
     30f:	75 22 	jne	34 <_project_function+0x43>
     311:	8b 41 04 	movl	4(%ecx), %eax
     314:	8b 51 08 	movl	8(%ecx), %edx
     317:	83 c4 08 	addl	$8, %esp
     31a:	5d 	popl	%ebp
     31b:	c3 	retl
     31c:	8d 88 40 1c 00 00 	leal	7232(%eax), %ecx
     322:	8d 90 a0 1b 00 00 	leal	7072(%eax), %edx
     328:	8d 80 34 1c 00 00 	leal	7220(%eax), %eax
     32e:	51 	pushl	%ecx
     32f:	6a 5c 	pushl	$92
     331:	eb 15 	jmp	21 <_project_function+0x58>
     333:	8d 88 69 1c 00 00 	leal	7273(%eax), %ecx
     339:	8d 90 a0 1b 00 00 	leal	7072(%eax), %edx
     33f:	8d 80 58 1c 00 00 	leal	7256(%eax), %eax
     345:	51 	pushl	%ecx
     346:	6a 62 	pushl	$98
     348:	52 	pushl	%edx
     349:	50 	pushl	%eax
     34a:	e8 b1 fc ff ff 	calll	-847 <_min>
     34f:	90 	nop

_project_class:
     350:	55 	pushl	%ebp
     351:	89 e5 	movl	%esp, %ebp
     353:	83 ec 08 	subl	$8, %esp
     356:	e8 00 00 00 00 	calll	0 <_project_class+0xB>
     35b:	58 	popl	%eax
     35c:	8b 4d 0c 	movl	12(%ebp), %ecx
     35f:	89 ca 	movl	%ecx, %edx
     361:	83 e2 03 	andl	$3, %edx
     364:	83 fa 03 	cmpl	$3, %edx
     367:	75 21 	jne	33 <_project_class+0x3A>
     369:	83 e1 fc 	andl	$-4, %ecx
     36c:	83 39 03 	cmpl	$3, (%ecx)
     36f:	75 30 	jne	48 <_project_class+0x51>
     371:	8b 45 08 	movl	8(%ebp), %eax
     374:	8b 51 0c 	movl	12(%ecx), %edx
     377:	89 50 08 	movl	%edx, 8(%eax)
     37a:	f2 0f 10 41 04 	movsd	4(%ecx), %xmm0
     37f:	f2 0f 11 00 	movsd	%xmm0, (%eax)
     383:	83 c4 08 	addl	$8, %esp
     386:	5d 	popl	%ebp
     387:	c2 04 00 	retl	$4
     38a:	8d 88 e0 1b 00 00 	leal	7136(%eax), %ecx
     390:	8d 90 40 1b 00 00 	leal	6976(%eax), %edx
     396:	8d 80 d4 1b 00 00 	leal	7124(%eax), %eax
     39c:	51 	pushl	%ecx
     39d:	6a 5c 	pushl	$92
     39f:	eb 15 	jmp	21 <_project_class+0x66>
     3a1:	8d 88 25 1c 00 00 	leal	7205(%eax), %ecx
     3a7:	8d 90 40 1b 00 00 	leal	6976(%eax), %edx
     3ad:	8d 80 17 1c 00 00 	leal	7191(%eax), %eax
     3b3:	51 	pushl	%ecx
     3b4:	6a 67 	pushl	$103
     3b6:	52 	pushl	%edx
     3b7:	50 	pushl	%eax
     3b8:	e8 43 fc ff ff 	calll	-957 <_min>
     3bd:	0f 1f 00 	nopl	(%eax)

_project_object:
     3c0:	55 	pushl	%ebp
     3c1:	89 e5 	movl	%esp, %ebp
     3c3:	83 ec 08 	subl	$8, %esp
     3c6:	e8 00 00 00 00 	calll	0 <_project_object+0xB>
     3cb:	58 	popl	%eax
     3cc:	8b 4d 0c 	movl	12(%ebp), %ecx
     3cf:	89 ca 	movl	%ecx, %edx
     3d1:	83 e2 03 	andl	$3, %edx
     3d4:	83 fa 03 	cmpl	$3, %edx
     3d7:	75 25 	jne	37 <_project_object+0x3E>
     3d9:	83 e1 fc 	andl	$-4, %ecx
     3dc:	83 39 04 	cmpl	$4, (%ecx)
     3df:	75 34 	jne	52 <_project_object+0x55>
     3e1:	8b 45 08 	movl	8(%ebp), %eax
     3e4:	f2 0f 10 41 04 	movsd	4(%ecx), %xmm0
     3e9:	f2 0f 10 49 0c 	movsd	12(%ecx), %xmm1
     3ee:	f2 0f 11 48 08 	movsd	%xmm1, 8(%eax)
     3f3:	f2 0f 11 00 	movsd	%xmm0, (%eax)
     3f7:	83 c4 08 	addl	$8, %esp
     3fa:	5d 	popl	%ebp
     3fb:	c2 04 00 	retl	$4
     3fe:	8d 88 70 1b 00 00 	leal	7024(%eax), %ecx
     404:	8d 90 d0 1a 00 00 	leal	6864(%eax), %edx
     40a:	8d 80 64 1b 00 00 	leal	7012(%eax), %eax
     410:	51 	pushl	%ecx
     411:	6a 5c 	pushl	$92
     413:	eb 15 	jmp	21 <_project_object+0x6A>
     415:	8d 88 d4 1b 00 00 	leal	7124(%eax), %ecx
     41b:	8d 90 d0 1a 00 00 	leal	6864(%eax), %edx
     421:	8d 80 c5 1b 00 00 	leal	7109(%eax), %eax
     427:	51 	pushl	%ecx
     428:	6a 6c 	pushl	$108
     42a:	52 	pushl	%edx
     42b:	50 	pushl	%eax
     42c:	e8 cf fb ff ff 	calll	-1073 <_min>
     431:	66 66 66 66 66 66 2e 0f 1f 84 00 00 00 00 00 	nopw	%cs:(%eax,%eax)

_project_bound_method:
     440:	55 	pushl	%ebp
     441:	89 e5 	movl	%esp, %ebp
     443:	83 ec 08 	subl	$8, %esp
     446:	e8 00 00 00 00 	calll	0 <_project_bound_method+0xB>
     44b:	58 	popl	%eax
     44c:	8b 4d 0c 	movl	12(%ebp), %ecx
     44f:	89 ca 	movl	%ecx, %edx
     451:	83 e2 03 	andl	$3, %edx
     454:	83 fa 03 	cmpl	$3, %edx
     457:	75 2f 	jne	47 <_project_bound_method+0x48>
     459:	83 e1 fc 	andl	$-4, %ecx
     45c:	83 39 06 	cmpl	$6, (%ecx)
     45f:	75 3e 	jne	62 <_project_bound_method+0x5F>
     461:	8b 45 08 	movl	8(%ebp), %eax
     464:	f2 0f 10 41 14 	movsd	20(%ecx), %xmm0
     469:	f2 0f 11 40 10 	movsd	%xmm0, 16(%eax)
     46e:	f2 0f 10 41 04 	movsd	4(%ecx), %xmm0
     473:	f2 0f 10 49 0c 	movsd	12(%ecx), %xmm1
     478:	f2 0f 11 48 08 	movsd	%xmm1, 8(%eax)
     47d:	f2 0f 11 00 	movsd	%xmm0, (%eax)
     481:	83 c4 08 	addl	$8, %esp
     484:	5d 	popl	%ebp
     485:	c2 04 00 	retl	$4
     488:	8d 88 f0 1a 00 00 	leal	6896(%eax), %ecx
     48e:	8d 90 50 1a 00 00 	leal	6736(%eax), %edx
     494:	8d 80 e4 1a 00 00 	leal	6884(%eax), %eax
     49a:	51 	pushl	%ecx
     49b:	6a 5c 	pushl	$92
     49d:	eb 15 	jmp	21 <_project_bound_method+0x74>
     49f:	8d 88 7a 1b 00 00 	leal	7034(%eax), %ecx
     4a5:	8d 90 50 1a 00 00 	leal	6736(%eax), %edx
     4ab:	8d 80 65 1b 00 00 	leal	7013(%eax), %eax
     4b1:	51 	pushl	%ecx
     4b2:	6a 71 	pushl	$113
     4b4:	52 	pushl	%edx
     4b5:	50 	pushl	%eax
     4b6:	e8 45 fb ff ff 	calll	-1211 <_min>
     4bb:	0f 1f 44 00 00 	nopl	(%eax,%eax)

_project_unbound_method:
     4c0:	55 	pushl	%ebp
     4c1:	89 e5 	movl	%esp, %ebp
     4c3:	83 ec 08 	subl	$8, %esp
     4c6:	e8 00 00 00 00 	calll	0 <_project_unbound_method+0xB>
     4cb:	58 	popl	%eax
     4cc:	8b 4d 0c 	movl	12(%ebp), %ecx
     4cf:	89 ca 	movl	%ecx, %edx
     4d1:	83 e2 03 	andl	$3, %edx
     4d4:	83 fa 03 	cmpl	$3, %edx
     4d7:	75 2b 	jne	43 <_project_unbound_method+0x44>
     4d9:	83 e1 fc 	andl	$-4, %ecx
     4dc:	83 39 05 	cmpl	$5, (%ecx)
     4df:	75 3a 	jne	58 <_project_unbound_method+0x5B>
     4e1:	8b 45 08 	movl	8(%ebp), %eax
     4e4:	8b 51 14 	movl	20(%ecx), %edx
     4e7:	89 50 10 	movl	%edx, 16(%eax)
     4ea:	f2 0f 10 41 04 	movsd	4(%ecx), %xmm0
     4ef:	f2 0f 10 49 0c 	movsd	12(%ecx), %xmm1
     4f4:	f2 0f 11 48 08 	movsd	%xmm1, 8(%eax)
     4f9:	f2 0f 11 00 	movsd	%xmm0, (%eax)
     4fd:	83 c4 08 	addl	$8, %esp
     500:	5d 	popl	%ebp
     501:	c2 04 00 	retl	$4
     504:	8d 88 70 1a 00 00 	leal	6768(%eax), %ecx
     50a:	8d 90 d0 19 00 00 	leal	6608(%eax), %edx
     510:	8d 80 64 1a 00 00 	leal	6756(%eax), %eax
     516:	51 	pushl	%ecx
     517:	6a 5c 	pushl	$92
     519:	eb 15 	jmp	21 <_project_unbound_method+0x70>
     51b:	8d 88 23 1b 00 00 	leal	6947(%eax), %ecx
     521:	8d 90 d0 19 00 00 	leal	6608(%eax), %edx
     527:	8d 80 0c 1b 00 00 	leal	6924(%eax), %eax
     52d:	51 	pushl	%ecx
     52e:	6a 76 	pushl	$118
     530:	52 	pushl	%edx
     531:	50 	pushl	%eax
     532:	e8 c9 fa ff ff 	calll	-1335 <_min>
     537:	66 0f 1f 84 00 00 00 00 00 	nopw	(%eax,%eax)

_print_int_nl:
     540:	55 	pushl	%ebp
     541:	89 e5 	movl	%esp, %ebp
     543:	83 ec 08 	subl	$8, %esp
     546:	e8 00 00 00 00 	calll	0 <_print_int_nl+0xB>
     54b:	58 	popl	%eax
     54c:	83 ec 08 	subl	$8, %esp
     54f:	8d 80 b6 1a 00 00 	leal	6838(%eax), %eax
     555:	ff 75 08 	pushl	8(%ebp)
     558:	50 	pushl	%eax
     559:	e8 a2 fa ff ff 	calll	-1374 <_min>
     55e:	83 c4 18 	addl	$24, %esp
     561:	5d 	popl	%ebp
     562:	c3 	retl
     563:	66 66 66 66 2e 0f 1f 84 00 00 00 00 00 	nopw	%cs:(%eax,%eax)

_input:
     570:	55 	pushl	%ebp
     571:	89 e5 	movl	%esp, %ebp
     573:	83 ec 08 	subl	$8, %esp
     576:	e8 00 00 00 00 	calll	0 <_input+0xB>
     57b:	58 	popl	%eax
     57c:	83 ec 08 	subl	$8, %esp
     57f:	8d 4d fc 	leal	-4(%ebp), %ecx
     582:	8d 80 8a 1a 00 00 	leal	6794(%eax), %eax
     588:	51 	pushl	%ecx
     589:	50 	pushl	%eax
     58a:	e8 71 fa ff ff 	calll	-1423 <_min>
     58f:	83 c4 10 	addl	$16, %esp
     592:	8b 45 fc 	movl	-4(%ebp), %eax
     595:	83 c4 08 	addl	$8, %esp
     598:	5d 	popl	%ebp
     599:	c3 	retl
     59a:	66 0f 1f 44 00 00 	nopw	(%eax,%eax)

_input_int:
     5a0:	55 	pushl	%ebp
     5a1:	89 e5 	movl	%esp, %ebp
     5a3:	83 ec 08 	subl	$8, %esp
     5a6:	e8 00 00 00 00 	calll	0 <_input_int+0xB>
     5ab:	58 	popl	%eax
     5ac:	83 ec 08 	subl	$8, %esp
     5af:	8d 4d fc 	leal	-4(%ebp), %ecx
     5b2:	8d 80 5a 1a 00 00 	leal	6746(%eax), %eax
     5b8:	51 	pushl	%ecx
     5b9:	50 	pushl	%eax
     5ba:	e8 41 fa ff ff 	calll	-1471 <_min>
     5bf:	83 c4 10 	addl	$16, %esp
     5c2:	8b 45 fc 	movl	-4(%ebp), %eax
     5c5:	c1 e0 02 	shll	$2, %eax
     5c8:	83 c4 08 	addl	$8, %esp
     5cb:	5d 	popl	%ebp
     5cc:	c3 	retl
     5cd:	0f 1f 00 	nopl	(%eax)

_create_list:
     5d0:	55 	pushl	%ebp
     5d1:	89 e5 	movl	%esp, %ebp
     5d3:	57 	pushl	%edi
     5d4:	56 	pushl	%esi
     5d5:	e8 00 00 00 00 	calll	0 <_create_list+0xA>
     5da:	59 	popl	%ecx
     5db:	8b 45 08 	movl	8(%ebp), %eax
     5de:	a8 03 	testb	$3, %al
     5e0:	75 33 	jne	51 <_create_list+0x45>
     5e2:	89 c7 	movl	%eax, %edi
     5e4:	c1 ff 02 	sarl	$2, %edi
     5e7:	83 e0 fc 	andl	$-4, %eax
     5ea:	83 ec 0c 	subl	$12, %esp
     5ed:	50 	pushl	%eax
     5ee:	e8 0d fa ff ff 	calll	-1523 <_min>
     5f3:	83 c4 10 	addl	$16, %esp
     5f6:	89 c6 	movl	%eax, %esi
     5f8:	83 ec 0c 	subl	$12, %esp
     5fb:	6a 1c 	pushl	$28
     5fd:	e8 fe f9 ff ff 	calll	-1538 <_min>
     602:	83 c4 10 	addl	$16, %esp
     605:	c7 00 00 00 00 00 	movl	$0, (%eax)
     60b:	89 70 04 	movl	%esi, 4(%eax)
     60e:	89 78 08 	movl	%edi, 8(%eax)
     611:	5e 	popl	%esi
     612:	5f 	popl	%edi
     613:	5d 	popl	%ebp
     614:	c3 	retl
     615:	8d 81 ef 18 00 00 	leal	6383(%ecx), %eax
     61b:	8d 91 c1 18 00 00 	leal	6337(%ecx), %edx
     621:	8d 89 e3 18 00 00 	leal	6371(%ecx), %ecx
     627:	50 	pushl	%eax
     628:	6a 50 	pushl	$80
     62a:	52 	pushl	%edx
     62b:	51 	pushl	%ecx
     62c:	e8 cf f9 ff ff 	calll	-1585 <_min>
     631:	66 66 66 66 66 66 2e 0f 1f 84 00 00 00 00 00 	nopw	%cs:(%eax,%eax)

_create_dict:
     640:	55 	pushl	%ebp
     641:	89 e5 	movl	%esp, %ebp
     643:	57 	pushl	%edi
     644:	56 	pushl	%esi
     645:	e8 00 00 00 00 	calll	0 <_create_dict+0xA>
     64a:	5f 	popl	%edi
     64b:	83 ec 0c 	subl	$12, %esp
     64e:	6a 1c 	pushl	$28
     650:	e8 ab f9 ff ff 	calll	-1621 <_min>
     655:	83 c4 10 	addl	$16, %esp
     658:	89 c6 	movl	%eax, %esi
     65a:	c7 06 01 00 00 00 	movl	$1, (%esi)
     660:	83 ec 04 	subl	$4, %esp
     663:	8d 87 86 01 00 00 	leal	390(%edi), %eax
     669:	8d 8f 46 00 00 00 	leal	70(%edi), %ecx
     66f:	50 	pushl	%eax
     670:	51 	pushl	%ecx
     671:	6a 04 	pushl	$4
     673:	e8 88 f9 ff ff 	calll	-1656 <_min>
     678:	83 c4 10 	addl	$16, %esp
     67b:	89 46 04 	movl	%eax, 4(%esi)
     67e:	89 f0 	movl	%esi, %eax
     680:	5e 	popl	%esi
     681:	5f 	popl	%edi
     682:	5d 	popl	%ebp
     683:	c3 	retl
     684:	66 66 66 2e 0f 1f 84 00 00 00 00 00 	nopw	%cs:(%eax,%eax)

_hash_any:
     690:	55 	pushl	%ebp
     691:	89 e5 	movl	%esp, %ebp
     693:	53 	pushl	%ebx
     694:	57 	pushl	%edi
     695:	56 	pushl	%esi
     696:	83 ec 0c 	subl	$12, %esp
     699:	e8 00 00 00 00 	calll	0 <_hash_any+0xE>
     69e:	58 	popl	%eax
     69f:	8b 4d 08 	movl	8(%ebp), %ecx
     6a2:	8b 19 	movl	(%ecx), %ebx
     6a4:	89 d9 	movl	%ebx, %ecx
     6a6:	80 e1 03 	andb	$3, %cl
     6a9:	80 f9 01 	cmpb	$1, %cl
     6ac:	74 6b 	je	107 <_hash_any+0x89>
     6ae:	80 f9 02 	cmpb	$2, %cl
     6b1:	74 7e 	je	126 <_hash_any+0xA1>
     6b3:	80 f9 03 	cmpb	$3, %cl
     6b6:	75 61 	jne	97 <_hash_any+0x89>
     6b8:	83 e3 fc 	andl	$-4, %ebx
     6bb:	8b 0b 	movl	(%ebx), %ecx
     6bd:	83 f9 01 	cmpl	$1, %ecx
     6c0:	0f 84 a7 00 00 00 	je	167 <_hash_any+0xDD>
     6c6:	85 c9 	testl	%ecx, %ecx
     6c8:	0f 85 e9 00 00 00 	jne	233 <_hash_any+0x127>
     6ce:	83 7b 08 00 	cmpl	$0, 8(%ebx)
     6d2:	0f 84 db 00 00 00 	je	219 <_hash_any+0x123>
     6d8:	31 ff 	xorl	%edi, %edi
     6da:	31 f6 	xorl	%esi, %esi
     6dc:	89 5d f0 	movl	%ebx, -16(%ebp)
     6df:	31 db 	xorl	%ebx, %ebx
     6e1:	66 66 66 66 66 66 2e 0f 1f 84 00 00 00 00 00 	nopw	%cs:(%eax,%eax)
     6f0:	8d 04 b6 	leal	(%esi,%esi,4), %eax
     6f3:	89 45 ec 	movl	%eax, -20(%ebp)
     6f6:	8b 45 f0 	movl	-16(%ebp), %eax
     6f9:	8b 40 04 	movl	4(%eax), %eax
     6fc:	01 f8 	addl	%edi, %eax
     6fe:	89 04 24 	movl	%eax, (%esp)
     701:	e8 8a ff ff ff 	calll	-118 <_hash_any>
     706:	89 c6 	movl	%eax, %esi
     708:	03 75 ec 	addl	-20(%ebp), %esi
     70b:	43 	incl	%ebx
     70c:	83 c7 04 	addl	$4, %edi
     70f:	8b 45 f0 	movl	-16(%ebp), %eax
     712:	3b 58 08 	cmpl	8(%eax), %ebx
     715:	75 d9 	jne	-39 <_hash_any+0x60>
     717:	eb 4a 	jmp	74 <_hash_any+0xD3>
     719:	c1 fb 02 	sarl	$2, %ebx
     71c:	89 d8 	movl	%ebx, %eax
     71e:	f7 d0 	notl	%eax
     720:	c1 e3 0f 	shll	$15, %ebx
     723:	01 c3 	addl	%eax, %ebx
     725:	89 d8 	movl	%ebx, %eax
     727:	c1 f8 0c 	sarl	$12, %eax
     72a:	31 d8 	xorl	%ebx, %eax
     72c:	8d 04 80 	leal	(%eax,%eax,4), %eax
     72f:	eb 1e 	jmp	30 <_hash_any+0xBF>
     731:	83 e3 fc 	andl	$-4, %ebx
     734:	f3 0f 2a c3 	cvtsi2ssl	%ebx, %xmm0
     738:	f3 0f 2c c0 	cvttss2si	%xmm0, %eax
     73c:	89 c1 	movl	%eax, %ecx
     73e:	f7 d1 	notl	%ecx
     740:	c1 e0 0f 	shll	$15, %eax
     743:	01 c8 	addl	%ecx, %eax
     745:	89 c1 	movl	%eax, %ecx
     747:	c1 f9 0c 	sarl	$12, %ecx
     74a:	31 c1 	xorl	%eax, %ecx
     74c:	8d 04 89 	leal	(%ecx,%ecx,4), %eax
     74f:	89 c1 	movl	%eax, %ecx
     751:	c1 f9 04 	sarl	$4, %ecx
     754:	31 c1 	xorl	%eax, %ecx
     756:	69 c1 09 08 00 00 	imull	$2057, %ecx, %eax
     75c:	89 c6 	movl	%eax, %esi
     75e:	c1 fe 10 	sarl	$16, %esi
     761:	31 c6 	xorl	%eax, %esi
     763:	89 f0 	movl	%esi, %eax
     765:	83 c4 0c 	addl	$12, %esp
     768:	5e 	popl	%esi
     769:	5f 	popl	%edi
     76a:	5b 	popl	%ebx
     76b:	5d 	popl	%ebp
     76c:	c3 	retl
     76d:	8b 43 04 	movl	4(%ebx), %eax
     770:	89 04 24 	movl	%eax, (%esp)
     773:	e8 88 f8 ff ff 	calll	-1912 <_min>
     778:	85 c0 	testl	%eax, %eax
     77a:	74 37 	je	55 <_hash_any+0x123>
     77c:	8b 43 04 	movl	4(%ebx), %eax
     77f:	89 04 24 	movl	%eax, (%esp)
     782:	31 f6 	xorl	%esi, %esi
     784:	e8 77 f8 ff ff 	calll	-1929 <_min>
     789:	89 c7 	movl	%eax, %edi
     78b:	0f 1f 44 00 00 	nopl	(%eax,%eax)
     790:	8d 1c b6 	leal	(%esi,%esi,4), %ebx
     793:	8b 47 04 	movl	4(%edi), %eax
     796:	8b 40 04 	movl	4(%eax), %eax
     799:	89 04 24 	movl	%eax, (%esp)
     79c:	e8 ef fe ff ff 	calll	-273 <_hash_any>
     7a1:	89 c6 	movl	%eax, %esi
     7a3:	01 de 	addl	%ebx, %esi
     7a5:	89 3c 24 	movl	%edi, (%esp)
     7a8:	e8 53 f8 ff ff 	calll	-1965 <_min>
     7ad:	85 c0 	testl	%eax, %eax
     7af:	75 df 	jne	-33 <_hash_any+0x100>
     7b1:	eb b0 	jmp	-80 <_hash_any+0xD3>
     7b3:	31 f6 	xorl	%esi, %esi
     7b5:	eb ac 	jmp	-84 <_hash_any+0xD3>
     7b7:	8d 80 a2 1a 00 00 	leal	6818(%eax), %eax
     7bd:	89 04 24 	movl	%eax, (%esp)
     7c0:	e8 3b f8 ff ff 	calll	-1989 <_min>
     7c5:	0f 0b 	ud2
     7c7:	66 0f 1f 84 00 00 00 00 00 	nopw	(%eax,%eax)

_equal_any:
     7d0:	55 	pushl	%ebp
     7d1:	89 e5 	movl	%esp, %ebp
     7d3:	83 ec 08 	subl	$8, %esp
     7d6:	8b 45 0c 	movl	12(%ebp), %eax
     7d9:	8b 4d 08 	movl	8(%ebp), %ecx
     7dc:	8b 09 	movl	(%ecx), %ecx
     7de:	8b 10 	movl	(%eax), %edx
     7e0:	e8 eb 14 00 00 	calll	5355 <_equal_pyobj>
     7e5:	83 c4 08 	addl	$8, %esp
     7e8:	5d 	popl	%ebp
     7e9:	c3 	retl
     7ea:	66 0f 1f 44 00 00 	nopw	(%eax,%eax)

_add:
     7f0:	55 	pushl	%ebp
     7f1:	89 e5 	movl	%esp, %ebp
     7f3:	53 	pushl	%ebx
     7f4:	57 	pushl	%edi
     7f5:	56 	pushl	%esi
     7f6:	83 ec 1c 	subl	$28, %esp
     7f9:	e8 00 00 00 00 	calll	0 <_add+0xE>
     7fe:	58 	popl	%eax
     7ff:	8b 4d 08 	movl	8(%ebp), %ecx
     802:	83 39 00 	cmpl	$0, (%ecx)
     805:	0f 85 93 00 00 00 	jne	147 <_add+0xAE>
     80b:	8b 55 0c 	movl	12(%ebp), %edx
     80e:	83 3a 00 	cmpl	$0, (%edx)
     811:	0f 85 87 00 00 00 	jne	135 <_add+0xAE>
     817:	8b 41 04 	movl	4(%ecx), %eax
     81a:	89 45 f0 	movl	%eax, -16(%ebp)
     81d:	8b 79 08 	movl	8(%ecx), %edi
     820:	8b 42 04 	movl	4(%edx), %eax
     823:	89 45 ec 	movl	%eax, -20(%ebp)
     826:	8b 5a 08 	movl	8(%edx), %ebx
     829:	8d 04 3b 	leal	(%ebx,%edi), %eax
     82c:	89 45 e8 	movl	%eax, -24(%ebp)
     82f:	8d 04 85 00 00 00 00 	leal	(,%eax,4), %eax
     836:	89 04 24 	movl	%eax, (%esp)
     839:	e8 c2 f7 ff ff 	calll	-2110 <_min>
     83e:	89 c6 	movl	%eax, %esi
     840:	85 ff 	testl	%edi, %edi
     842:	74 1a 	je	26 <_add+0x6E>
     844:	8d 04 bd 00 00 00 00 	leal	(,%edi,4), %eax
     84b:	89 44 24 08 	movl	%eax, 8(%esp)
     84f:	8b 45 f0 	movl	-16(%ebp), %eax
     852:	89 44 24 04 	movl	%eax, 4(%esp)
     856:	89 34 24 	movl	%esi, (%esp)
     859:	e8 a2 f7 ff ff 	calll	-2142 <_min>
     85e:	85 db 	testl	%ebx, %ebx
     860:	74 19 	je	25 <_add+0x8B>
     862:	8d 04 be 	leal	(%esi,%edi,4), %eax
     865:	c1 e3 02 	shll	$2, %ebx
     868:	89 5c 24 08 	movl	%ebx, 8(%esp)
     86c:	8b 4d ec 	movl	-20(%ebp), %ecx
     86f:	89 4c 24 04 	movl	%ecx, 4(%esp)
     873:	89 04 24 	movl	%eax, (%esp)
     876:	e8 85 f7 ff ff 	calll	-2171 <_min>
     87b:	c7 04 24 1c 00 00 00 	movl	$28, (%esp)
     882:	e8 79 f7 ff ff 	calll	-2183 <_min>
     887:	c7 00 00 00 00 00 	movl	$0, (%eax)
     88d:	89 70 04 	movl	%esi, 4(%eax)
     890:	8b 4d e8 	movl	-24(%ebp), %ecx
     893:	89 48 08 	movl	%ecx, 8(%eax)
     896:	83 c4 1c 	addl	$28, %esp
     899:	5e 	popl	%esi
     89a:	5f 	popl	%edi
     89b:	5b 	popl	%ebx
     89c:	5d 	popl	%ebp
     89d:	c3 	retl
     89e:	8d 80 62 19 00 00 	leal	6498(%eax), %eax
     8a4:	89 04 24 	movl	%eax, (%esp)
     8a7:	e8 54 f7 ff ff 	calll	-2220 <_min>
     8ac:	c7 04 24 ff ff ff ff 	movl	$4294967295, (%esp)
     8b3:	e8 48 f7 ff ff 	calll	-2232 <_min>
     8b8:	83 ec 04 	subl	$4, %esp
     8bb:	0f 1f 44 00 00 	nopl	(%eax,%eax)

_equal:
     8c0:	55 	pushl	%ebp
     8c1:	89 e5 	movl	%esp, %ebp
     8c3:	53 	pushl	%ebx
     8c4:	57 	pushl	%edi
     8c5:	56 	pushl	%esi
     8c6:	83 ec 0c 	subl	$12, %esp
     8c9:	8b 55 0c 	movl	12(%ebp), %edx
     8cc:	8b 4d 08 	movl	8(%ebp), %ecx
     8cf:	8b 31 	movl	(%ecx), %esi
     8d1:	31 c0 	xorl	%eax, %eax
     8d3:	83 fe 03 	cmpl	$3, %esi
     8d6:	74 68 	je	104 <_equal+0x80>
     8d8:	83 fe 01 	cmpl	$1, %esi
     8db:	74 71 	je	113 <_equal+0x8E>
     8dd:	85 f6 	testl	%esi, %esi
     8df:	0f 85 8e 00 00 00 	jne	142 <_equal+0xB3>
     8e5:	83 3a 00 	cmpl	$0, (%edx)
     8e8:	0f 85 85 00 00 00 	jne	133 <_equal+0xB3>
     8ee:	8b 59 08 	movl	8(%ecx), %ebx
     8f1:	8b 42 08 	movl	8(%edx), %eax
     8f4:	39 d8 	cmpl	%ebx, %eax
     8f6:	89 5d ec 	movl	%ebx, -20(%ebp)
     8f9:	89 45 f0 	movl	%eax, -16(%ebp)
     8fc:	0f 4e d8 	cmovlel	%eax, %ebx
     8ff:	85 db 	testl	%ebx, %ebx
     901:	74 60 	je	96 <_equal+0xA3>
     903:	8b 71 04 	movl	4(%ecx), %esi
     906:	8b 7a 04 	movl	4(%edx), %edi
     909:	b9 01 00 00 00 	movl	$1, %ecx
     90e:	66 90 	nop
     910:	85 c9 	testl	%ecx, %ecx
     912:	74 1c 	je	28 <_equal+0x70>
     914:	8b 0e 	movl	(%esi), %ecx
     916:	8b 17 	movl	(%edi), %edx
     918:	e8 b3 13 00 00 	calll	5043 <_equal_pyobj>
     91d:	85 c0 	testl	%eax, %eax
     91f:	0f 95 c0 	setne	%al
     922:	eb 0e 	jmp	14 <_equal+0x72>
     924:	66 66 66 2e 0f 1f 84 00 00 00 00 00 	nopw	%cs:(%eax,%eax)
     930:	31 c0 	xorl	%eax, %eax
     932:	0f b6 c8 	movzbl	%al, %ecx
     935:	83 c7 04 	addl	$4, %edi
     938:	83 c6 04 	addl	$4, %esi
     93b:	4b 	decl	%ebx
     93c:	75 d2 	jne	-46 <_equal+0x50>
     93e:	eb 28 	jmp	40 <_equal+0xA8>
     940:	83 3a 03 	cmpl	$3, (%edx)
     943:	75 2e 	jne	46 <_equal+0xB3>
     945:	31 c0 	xorl	%eax, %eax
     947:	39 d1 	cmpl	%edx, %ecx
     949:	0f 94 c0 	sete	%al
     94c:	eb 25 	jmp	37 <_equal+0xB3>
     94e:	83 3a 01 	cmpl	$1, (%edx)
     951:	75 20 	jne	32 <_equal+0xB3>
     953:	8b 49 04 	movl	4(%ecx), %ecx
     956:	8b 52 04 	movl	4(%edx), %edx
     959:	e8 22 00 00 00 	calll	34 <_dict_equal>
     95e:	0f be c0 	movsbl	%al, %eax
     961:	eb 10 	jmp	16 <_equal+0xB3>
     963:	b9 01 00 00 00 	movl	$1, %ecx
     968:	31 c0 	xorl	%eax, %eax
     96a:	8b 55 f0 	movl	-16(%ebp), %edx
     96d:	39 55 ec 	cmpl	%edx, -20(%ebp)
     970:	0f 44 c1 	cmovel	%ecx, %eax
     973:	83 c4 0c 	addl	$12, %esp
     976:	5e 	popl	%esi
     977:	5f 	popl	%edi
     978:	5b 	popl	%ebx
     979:	5d 	popl	%ebp
     97a:	c3 	retl
     97b:	0f 1f 44 00 00 	nopl	(%eax,%eax)

_dict_equal:
     980:	55 	pushl	%ebp
     981:	89 e5 	movl	%esp, %ebp
     983:	53 	pushl	%ebx
     984:	57 	pushl	%edi
     985:	56 	pushl	%esi
     986:	83 ec 1c 	subl	$28, %esp
     989:	89 d6 	movl	%edx, %esi
     98b:	e8 00 00 00 00 	calll	0 <_dict_equal+0x10>
     990:	5f 	popl	%edi
     991:	89 4d f0 	movl	%ecx, -16(%ebp)
     994:	89 0c 24 	movl	%ecx, (%esp)
     997:	e8 64 f6 ff ff 	calll	-2460 <_min>
     99c:	89 c3 	movl	%eax, %ebx
     99e:	89 75 ec 	movl	%esi, -20(%ebp)
     9a1:	89 34 24 	movl	%esi, (%esp)
     9a4:	e8 57 f6 ff ff 	calll	-2473 <_min>
     9a9:	39 c3 	cmpl	%eax, %ebx
     9ab:	75 3c 	jne	60 <_dict_equal+0x69>
     9ad:	8b 87 b8 19 00 00 	movl	6584(%edi), %eax
     9b3:	85 c0 	testl	%eax, %eax
     9b5:	89 fa 	movl	%edi, %edx
     9b7:	8b 7d ec 	movl	-20(%ebp), %edi
     9ba:	8b 75 f0 	movl	-16(%ebp), %esi
     9bd:	74 08 	je	8 <_dict_equal+0x47>
     9bf:	39 f0 	cmpl	%esi, %eax
     9c1:	74 2d 	je	45 <_dict_equal+0x70>
     9c3:	39 f8 	cmpl	%edi, %eax
     9c5:	74 22 	je	34 <_dict_equal+0x69>
     9c7:	8b 8a bc 19 00 00 	movl	6588(%edx), %ecx
     9cd:	85 c9 	testl	%ecx, %ecx
     9cf:	74 08 	je	8 <_dict_equal+0x59>
     9d1:	39 f9 	cmpl	%edi, %ecx
     9d3:	74 25 	je	37 <_dict_equal+0x7A>
     9d5:	39 f1 	cmpl	%esi, %ecx
     9d7:	74 10 	je	16 <_dict_equal+0x69>
     9d9:	85 c0 	testl	%eax, %eax
     9db:	89 55 e4 	movl	%edx, -28(%ebp)
     9de:	74 24 	je	36 <_dict_equal+0x84>
     9e0:	c7 45 e8 00 00 00 00 	movl	$0, -24(%ebp)
     9e7:	eb 2c 	jmp	44 <_dict_equal+0x95>
     9e9:	31 c0 	xorl	%eax, %eax
     9eb:	e9 cb 00 00 00 	jmp	203 <_dict_equal+0x13B>
     9f0:	39 f8 	cmpl	%edi, %eax
     9f2:	0f 94 c0 	sete	%al
     9f5:	e9 c1 00 00 00 	jmp	193 <_dict_equal+0x13B>
     9fa:	39 f1 	cmpl	%esi, %ecx
     9fc:	0f 94 c0 	sete	%al
     9ff:	e9 b7 00 00 00 	jmp	183 <_dict_equal+0x13B>
     a04:	89 b2 b8 19 00 00 	movl	%esi, 6584(%edx)
     a0a:	89 ba bc 19 00 00 	movl	%edi, 6588(%edx)
     a10:	b0 01 	movb	$1, %al
     a12:	89 45 e8 	movl	%eax, -24(%ebp)
     a15:	89 34 24 	movl	%esi, (%esp)
     a18:	e8 e3 f5 ff ff 	calll	-2589 <_min>
     a1d:	89 c3 	movl	%eax, %ebx
     a1f:	89 34 24 	movl	%esi, (%esp)
     a22:	e8 d9 f5 ff ff 	calll	-2599 <_min>
     a27:	89 c6 	movl	%eax, %esi
     a29:	89 3c 24 	movl	%edi, (%esp)
     a2c:	e8 cf f5 ff ff 	calll	-2609 <_min>
     a31:	89 c2 	movl	%eax, %edx
     a33:	b0 01 	movb	$1, %al
     a35:	85 db 	testl	%ebx, %ebx
     a37:	74 5f 	je	95 <_dict_equal+0x118>
     a39:	89 45 f0 	movl	%eax, -16(%ebp)
     a3c:	89 55 ec 	movl	%edx, -20(%ebp)
     a3f:	90 	nop
     a40:	89 f7 	movl	%esi, %edi
     a42:	8b 46 04 	movl	4(%esi), %eax
     a45:	8b 08 	movl	(%eax), %ecx
     a47:	8b 40 04 	movl	4(%eax), %eax
     a4a:	8b 09 	movl	(%ecx), %ecx
     a4c:	8b 18 	movl	(%eax), %ebx
     a4e:	8b 42 04 	movl	4(%edx), %eax
     a51:	8b 10 	movl	(%eax), %edx
     a53:	8b 40 04 	movl	4(%eax), %eax
     a56:	8b 12 	movl	(%edx), %edx
     a58:	8b 30 	movl	(%eax), %esi
     a5a:	e8 71 12 00 00 	calll	4721 <_equal_pyobj>
     a5f:	85 c0 	testl	%eax, %eax
     a61:	74 0d 	je	13 <_dict_equal+0xF0>
     a63:	89 d9 	movl	%ebx, %ecx
     a65:	89 f2 	movl	%esi, %edx
     a67:	e8 64 12 00 00 	calll	4708 <_equal_pyobj>
     a6c:	85 c0 	testl	%eax, %eax
     a6e:	75 07 	jne	7 <_dict_equal+0xF7>
     a70:	c7 45 f0 00 00 00 00 	movl	$0, -16(%ebp)
     a77:	89 fe 	movl	%edi, %esi
     a79:	89 34 24 	movl	%esi, (%esp)
     a7c:	e8 7f f5 ff ff 	calll	-2689 <_min>
     a81:	85 c0 	testl	%eax, %eax
     a83:	74 16 	je	22 <_dict_equal+0x11B>
     a85:	8b 7d ec 	movl	-20(%ebp), %edi
     a88:	89 3c 24 	movl	%edi, (%esp)
     a8b:	e8 70 f5 ff ff 	calll	-2704 <_min>
     a90:	89 fa 	movl	%edi, %edx
     a92:	85 c0 	testl	%eax, %eax
     a94:	75 aa 	jne	-86 <_dict_equal+0xC0>
     a96:	eb 03 	jmp	3 <_dict_equal+0x11B>
     a98:	89 45 f0 	movl	%eax, -16(%ebp)
     a9b:	80 7d e8 00 	cmpb	$0, -24(%ebp)
     a9f:	74 17 	je	23 <_dict_equal+0x138>
     aa1:	8b 45 e4 	movl	-28(%ebp), %eax
     aa4:	c7 80 b8 19 00 00 00 00 00 00 	movl	$0, 6584(%eax)
     aae:	c7 80 bc 19 00 00 00 00 00 00 	movl	$0, 6588(%eax)
     ab8:	8b 45 f0 	movl	-16(%ebp), %eax
     abb:	0f be c0 	movsbl	%al, %eax
     abe:	83 c4 1c 	addl	$28, %esp
     ac1:	5e 	popl	%esi
     ac2:	5f 	popl	%edi
     ac3:	5b 	popl	%ebx
     ac4:	5d 	popl	%ebp
     ac5:	c3 	retl
     ac6:	66 2e 0f 1f 84 00 00 00 00 00 	nopw	%cs:(%eax,%eax)

_not_equal:
     ad0:	55 	pushl	%ebp
     ad1:	89 e5 	movl	%esp, %ebp
     ad3:	83 ec 08 	subl	$8, %esp
     ad6:	83 ec 08 	subl	$8, %esp
     ad9:	ff 75 0c 	pushl	12(%ebp)
     adc:	ff 75 08 	pushl	8(%ebp)
     adf:	e8 dc fd ff ff 	calll	-548 <_equal>
     ae4:	83 c4 10 	addl	$16, %esp
     ae7:	31 c9 	xorl	%ecx, %ecx
     ae9:	85 c0 	testl	%eax, %eax
     aeb:	0f 94 c1 	sete	%cl
     aee:	89 c8 	movl	%ecx, %eax
     af0:	83 c4 08 	addl	$8, %esp
     af3:	5d 	popl	%ebp
     af4:	c3 	retl
     af5:	66 66 2e 0f 1f 84 00 00 00 00 00 	nopw	%cs:(%eax,%eax)

_set_subscript:
     b00:	55 	pushl	%ebp
     b01:	89 e5 	movl	%esp, %ebp
     b03:	53 	pushl	%ebx
     b04:	57 	pushl	%edi
     b05:	56 	pushl	%esi
     b06:	83 ec 0c 	subl	$12, %esp
     b09:	e8 00 00 00 00 	calll	0 <_set_subscript+0xE>
     b0e:	5b 	popl	%ebx
     b0f:	8b 45 08 	movl	8(%ebp), %eax
     b12:	89 c1 	movl	%eax, %ecx
     b14:	83 e1 03 	andl	$3, %ecx
     b17:	83 f9 03 	cmpl	$3, %ecx
     b1a:	0f 85 90 00 00 00 	jne	144 <_set_subscript+0xB0>
     b20:	8b 75 10 	movl	16(%ebp), %esi
     b23:	8b 7d 0c 	movl	12(%ebp), %edi
     b26:	83 e0 fc 	andl	$-4, %eax
     b29:	8b 08 	movl	(%eax), %ecx
     b2b:	83 f9 01 	cmpl	$1, %ecx
     b2e:	74 1e 	je	30 <_set_subscript+0x4E>
     b30:	85 c9 	testl	%ecx, %ecx
     b32:	0f 85 a4 00 00 00 	jne	164 <_set_subscript+0xDC>
     b38:	8b 48 04 	movl	4(%eax), %ecx
     b3b:	8b 50 08 	movl	8(%eax), %edx
     b3e:	83 ec 0c 	subl	$12, %esp
     b41:	57 	pushl	%edi
     b42:	e8 d9 12 00 00 	calll	4825 <_list_subscript>
     b47:	83 c4 10 	addl	$16, %esp
     b4a:	89 30 	movl	%esi, (%eax)
     b4c:	eb 58 	jmp	88 <_set_subscript+0xA6>
     b4e:	8b 58 04 	movl	4(%eax), %ebx
     b51:	89 7d f0 	movl	%edi, -16(%ebp)
     b54:	83 ec 08 	subl	$8, %esp
     b57:	8d 45 f0 	leal	-16(%ebp), %eax
     b5a:	50 	pushl	%eax
     b5b:	53 	pushl	%ebx
     b5c:	e8 9f f4 ff ff 	calll	-2913 <_min>
     b61:	83 c4 10 	addl	$16, %esp
     b64:	89 c7 	movl	%eax, %edi
     b66:	85 ff 	testl	%edi, %edi
     b68:	75 3a 	jne	58 <_set_subscript+0xA4>
     b6a:	83 ec 0c 	subl	$12, %esp
     b6d:	6a 04 	pushl	$4
     b6f:	e8 8c f4 ff ff 	calll	-2932 <_min>
     b74:	83 c4 10 	addl	$16, %esp
     b77:	89 45 ec 	movl	%eax, -20(%ebp)
     b7a:	8b 4d f0 	movl	-16(%ebp), %ecx
     b7d:	89 08 	movl	%ecx, (%eax)
     b7f:	83 ec 0c 	subl	$12, %esp
     b82:	6a 04 	pushl	$4
     b84:	e8 77 f4 ff ff 	calll	-2953 <_min>
     b89:	83 c4 10 	addl	$16, %esp
     b8c:	89 c7 	movl	%eax, %edi
     b8e:	c7 07 f0 06 00 00 	movl	$1776, (%edi)
     b94:	83 ec 04 	subl	$4, %esp
     b97:	57 	pushl	%edi
     b98:	ff 75 ec 	pushl	-20(%ebp)
     b9b:	53 	pushl	%ebx
     b9c:	e8 5f f4 ff ff 	calll	-2977 <_min>
     ba1:	83 c4 10 	addl	$16, %esp
     ba4:	89 37 	movl	%esi, (%edi)
     ba6:	89 f0 	movl	%esi, %eax
     ba8:	83 c4 0c 	addl	$12, %esp
     bab:	5e 	popl	%esi
     bac:	5f 	popl	%edi
     bad:	5b 	popl	%ebx
     bae:	5d 	popl	%ebp
     baf:	c3 	retl
     bb0:	83 ec 0c 	subl	$12, %esp
     bb3:	8d 83 b2 16 00 00 	leal	5810(%ebx), %eax
     bb9:	50 	pushl	%eax
     bba:	e8 41 f4 ff ff 	calll	-3007 <_min>
     bbf:	83 c4 10 	addl	$16, %esp
     bc2:	8d 83 08 15 00 00 	leal	5384(%ebx), %eax
     bc8:	8d 8b 8d 13 00 00 	leal	5005(%ebx), %ecx
     bce:	8d 93 fa 14 00 00 	leal	5370(%ebx), %edx
     bd4:	50 	pushl	%eax
     bd5:	68 b3 02 00 00 	pushl	$691
     bda:	eb 2a 	jmp	42 <_set_subscript+0x106>
     bdc:	83 ec 0c 	subl	$12, %esp
     bdf:	8d 83 b2 16 00 00 	leal	5810(%ebx), %eax
     be5:	50 	pushl	%eax
     be6:	e8 15 f4 ff ff 	calll	-3051 <_min>
     beb:	83 c4 10 	addl	$16, %esp
     bee:	8d 83 08 15 00 00 	leal	5384(%ebx), %eax
     bf4:	8d 8b 8d 13 00 00 	leal	5005(%ebx), %ecx
     bfa:	8d 93 64 15 00 00 	leal	5476(%ebx), %edx
     c00:	50 	pushl	%eax
     c01:	68 a6 02 00 00 	pushl	$678
     c06:	51 	pushl	%ecx
     c07:	52 	pushl	%edx
     c08:	e8 f3 f3 ff ff 	calll	-3085 <_min>
     c0d:	0f 1f 00 	nopl	(%eax)

_get_subscript:
     c10:	55 	pushl	%ebp
     c11:	89 e5 	movl	%esp, %ebp
     c13:	53 	pushl	%ebx
     c14:	57 	pushl	%edi
     c15:	56 	pushl	%esi
     c16:	83 ec 0c 	subl	$12, %esp
     c19:	e8 00 00 00 00 	calll	0 <_get_subscript+0xE>
     c1e:	5e 	popl	%esi
     c1f:	8b 45 08 	movl	8(%ebp), %eax
     c22:	89 c1 	movl	%eax, %ecx
     c24:	83 e1 03 	andl	$3, %ecx
     c27:	83 f9 03 	cmpl	$3, %ecx
     c2a:	0f 85 88 00 00 00 	jne	136 <_get_subscript+0xA8>
     c30:	8b 7d 0c 	movl	12(%ebp), %edi
     c33:	83 e0 fc 	andl	$-4, %eax
     c36:	8b 08 	movl	(%eax), %ecx
     c38:	83 f9 01 	cmpl	$1, %ecx
     c3b:	74 1e 	je	30 <_get_subscript+0x4B>
     c3d:	85 c9 	testl	%ecx, %ecx
     c3f:	0f 85 9f 00 00 00 	jne	159 <_get_subscript+0xD4>
     c45:	8b 48 04 	movl	4(%eax), %ecx
     c48:	8b 50 08 	movl	8(%eax), %edx
     c4b:	83 ec 0c 	subl	$12, %esp
     c4e:	57 	pushl	%edi
     c4f:	e8 cc 11 00 00 	calll	4556 <_list_subscript>
     c54:	83 c4 10 	addl	$16, %esp
     c57:	89 c6 	movl	%eax, %esi
     c59:	eb 53 	jmp	83 <_get_subscript+0x9E>
     c5b:	8b 58 04 	movl	4(%eax), %ebx
     c5e:	89 7d f0 	movl	%edi, -16(%ebp)
     c61:	83 ec 08 	subl	$8, %esp
     c64:	8d 45 f0 	leal	-16(%ebp), %eax
     c67:	50 	pushl	%eax
     c68:	53 	pushl	%ebx
     c69:	e8 92 f3 ff ff 	calll	-3182 <_min>
     c6e:	83 c4 10 	addl	$16, %esp
     c71:	89 c6 	movl	%eax, %esi
     c73:	85 f6 	testl	%esi, %esi
     c75:	75 37 	jne	55 <_get_subscript+0x9E>
     c77:	83 ec 0c 	subl	$12, %esp
     c7a:	6a 04 	pushl	$4
     c7c:	e8 7f f3 ff ff 	calll	-3201 <_min>
     c81:	83 c4 10 	addl	$16, %esp
     c84:	89 c7 	movl	%eax, %edi
     c86:	8b 45 f0 	movl	-16(%ebp), %eax
     c89:	89 07 	movl	%eax, (%edi)
     c8b:	83 ec 0c 	subl	$12, %esp
     c8e:	6a 04 	pushl	$4
     c90:	e8 6b f3 ff ff 	calll	-3221 <_min>
     c95:	83 c4 10 	addl	$16, %esp
     c98:	89 c6 	movl	%eax, %esi
     c9a:	c7 06 f0 06 00 00 	movl	$1776, (%esi)
     ca0:	83 ec 04 	subl	$4, %esp
     ca3:	56 	pushl	%esi
     ca4:	57 	pushl	%edi
     ca5:	53 	pushl	%ebx
     ca6:	e8 55 f3 ff ff 	calll	-3243 <_min>
     cab:	83 c4 10 	addl	$16, %esp
     cae:	8b 06 	movl	(%esi), %eax
     cb0:	83 c4 0c 	addl	$12, %esp
     cb3:	5e 	popl	%esi
     cb4:	5f 	popl	%edi
     cb5:	5b 	popl	%ebx
     cb6:	5d 	popl	%ebp
     cb7:	c3 	retl
     cb8:	83 ec 0c 	subl	$12, %esp
     cbb:	8d 86 62 15 00 00 	leal	5474(%esi), %eax
     cc1:	50 	pushl	%eax
     cc2:	e8 39 f3 ff ff 	calll	-3271 <_min>
     cc7:	83 c4 10 	addl	$16, %esp
     cca:	8d 86 f8 13 00 00 	leal	5112(%esi), %eax
     cd0:	8d 8e 7d 12 00 00 	leal	4733(%esi), %ecx
     cd6:	8d 96 fa 13 00 00 	leal	5114(%esi), %edx
     cdc:	50 	pushl	%eax
     cdd:	68 ce 02 00 00 	pushl	$718
     ce2:	eb 2a 	jmp	42 <_get_subscript+0xFE>
     ce4:	83 ec 0c 	subl	$12, %esp
     ce7:	8d 86 a2 15 00 00 	leal	5538(%esi), %eax
     ced:	50 	pushl	%eax
     cee:	e8 0d f3 ff ff 	calll	-3315 <_min>
     cf3:	83 c4 10 	addl	$16, %esp
     cf6:	8d 86 f8 13 00 00 	leal	5112(%esi), %eax
     cfc:	8d 8e 7d 12 00 00 	leal	4733(%esi), %ecx
     d02:	8d 96 b3 14 00 00 	leal	5299(%esi), %edx
     d08:	50 	pushl	%eax
     d09:	68 c1 02 00 00 	pushl	$705
     d0e:	51 	pushl	%ecx
     d0f:	52 	pushl	%edx
     d10:	e8 eb f2 ff ff 	calll	-3349 <_min>
     d15:	66 66 2e 0f 1f 84 00 00 00 00 00 	nopw	%cs:(%eax,%eax)

_print_any:
     d20:	55 	pushl	%ebp
     d21:	89 e5 	movl	%esp, %ebp
     d23:	83 ec 08 	subl	$8, %esp
     d26:	8b 4d 08 	movl	8(%ebp), %ecx
     d29:	e8 12 00 00 00 	calll	18 <_print_pyobj>
     d2e:	c7 04 24 0a 00 00 00 	movl	$10, (%esp)
     d35:	e8 c6 f2 ff ff 	calll	-3386 <_min>
     d3a:	83 c4 08 	addl	$8, %esp
     d3d:	5d 	popl	%ebp
     d3e:	c3 	retl
     d3f:	90 	nop

_print_pyobj:
     d40:	55 	pushl	%ebp
     d41:	89 e5 	movl	%esp, %ebp
     d43:	53 	pushl	%ebx
     d44:	57 	pushl	%edi
     d45:	56 	pushl	%esi
     d46:	81 ec cc 00 00 00 	subl	$204, %esp
     d4c:	e8 00 00 00 00 	calll	0 <_print_pyobj+0x11>
     d51:	5b 	popl	%ebx
     d52:	8b bb f0 15 00 00 	movl	5616(%ebx), %edi
     d58:	8b 07 	movl	(%edi), %eax
     d5a:	89 45 f0 	movl	%eax, -16(%ebp)
     d5d:	89 c8 	movl	%ecx, %eax
     d5f:	24 03 	andb	$3, %al
     d61:	3c 01 	cmpb	$1, %al
     d63:	0f 84 90 00 00 00 	je	144 <_print_pyobj+0xB9>
     d69:	3c 02 	cmpb	$2, %al
     d6b:	0f 84 95 00 00 00 	je	149 <_print_pyobj+0xC6>
     d71:	3c 03 	cmpb	$3, %al
     d73:	0f 85 e2 00 00 00 	jne	226 <_print_pyobj+0x11B>
     d79:	89 ce 	movl	%ecx, %esi
     d7b:	83 e6 fc 	andl	$-4, %esi
     d7e:	8b 06 	movl	(%esi), %eax
     d80:	85 c0 	testl	%eax, %eax
     d82:	0f 84 f0 00 00 00 	je	240 <_print_pyobj+0x138>
     d88:	83 f8 01 	cmpl	$1, %eax
     d8b:	0f 85 dc 04 00 00 	jne	1244 <_print_pyobj+0x52D>
     d91:	8a 83 01 16 00 00 	movb	5633(%ebx), %al
     d97:	84 c0 	testb	%al, %al
     d99:	89 8d 60 ff ff ff 	movl	%ecx, -160(%ebp)
     d9f:	0f 84 21 01 00 00 	je	289 <_print_pyobj+0x186>
     da5:	8b 83 0b 16 00 00 	movl	5643(%ebx), %eax
     dab:	85 c0 	testl	%eax, %eax
     dad:	0f 84 c0 02 00 00 	je	704 <_print_pyobj+0x333>
     db3:	89 b5 6c ff ff ff 	movl	%esi, -148(%ebp)
     db9:	31 f6 	xorl	%esi, %esi
     dbb:	8b 93 07 16 00 00 	movl	5639(%ebx), %edx
     dc1:	66 66 66 66 66 66 2e 0f 1f 84 00 00 00 00 00 	nopw	%cs:(%eax,%eax)
     dd0:	39 0c b2 	cmpl	%ecx, (%edx,%esi,4)
     dd3:	0f 84 84 04 00 00 	je	1156 <_print_pyobj+0x51D>
     dd9:	46 	incl	%esi
     dda:	39 c6 	cmpl	%eax, %esi
     ddc:	72 f2 	jb	-14 <_print_pyobj+0x90>
     dde:	89 bd 68 ff ff ff 	movl	%edi, -152(%ebp)
     de4:	c7 85 5c ff ff ff 00 00 00 00 	movl	$0, -164(%ebp)
     dee:	8b b5 6c ff ff ff 	movl	-148(%ebp), %esi
     df4:	e9 8a 02 00 00 	jmp	650 <_print_pyobj+0x343>
     df9:	83 f9 04 	cmpl	$4, %ecx
     dfc:	73 6c 	jae	108 <_print_pyobj+0x12A>
     dfe:	8d 83 9b 13 00 00 	leal	5019(%ebx), %eax
     e04:	eb 6a 	jmp	106 <_print_pyobj+0x130>
     e06:	89 c8 	movl	%ecx, %eax
     e08:	83 e0 fc 	andl	$-4, %eax
     e0b:	f3 0f 2a c0 	cvtsi2ssl	%eax, %xmm0
     e0f:	f3 0f 5a c0 	cvtss2sd	%xmm0, %xmm0
     e13:	8d 83 a1 13 00 00 	leal	5025(%ebx), %eax
     e19:	89 44 24 10 	movl	%eax, 16(%esp)
     e1d:	8d 85 70 ff ff ff 	leal	-144(%ebp), %eax
     e23:	89 04 24 	movl	%eax, (%esp)
     e26:	f2 0f 11 44 24 14 	movsd	%xmm0, 20(%esp)
     e2c:	c7 44 24 0c 80 00 00 00 	movl	$128, 12(%esp)
     e34:	c7 44 24 08 00 00 00 00 	movl	$0, 8(%esp)
     e3c:	c7 44 24 04 80 00 00 00 	movl	$128, 4(%esp)
     e44:	89 ce 	movl	%ecx, %esi
     e46:	e8 b5 f1 ff ff 	calll	-3659 <_min>
     e4b:	83 e6 fc 	andl	$-4, %esi
     e4e:	74 51 	je	81 <_print_pyobj+0x161>
     e50:	8a 85 70 ff ff ff 	movb	-144(%ebp), %al
     e56:	e9 af 00 00 00 	jmp	175 <_print_pyobj+0x1CA>
     e5b:	c1 f9 02 	sarl	$2, %ecx
     e5e:	89 4c 24 04 	movl	%ecx, 4(%esp)
     e62:	8d 83 b4 12 00 00 	leal	4788(%ebx), %eax
     e68:	eb 06 	jmp	6 <_print_pyobj+0x130>
     e6a:	8d 83 96 13 00 00 	leal	5014(%ebx), %eax
     e70:	89 04 24 	movl	%eax, (%esp)
     e73:	e9 e4 00 00 00 	jmp	228 <_print_pyobj+0x21C>
     e78:	8b 83 0f 16 00 00 	movl	5647(%ebx), %eax
     e7e:	85 c0 	testl	%eax, %eax
     e80:	0f 84 f1 00 00 00 	je	241 <_print_pyobj+0x237>
     e86:	8b 56 04 	movl	4(%esi), %edx
     e89:	31 c9 	xorl	%ecx, %ecx
     e8b:	89 95 6c ff ff ff 	movl	%edx, -148(%ebp)
     e91:	39 d0 	cmpl	%edx, %eax
     e93:	0f 85 f2 00 00 00 	jne	242 <_print_pyobj+0x24B>
     e99:	8d 83 c4 13 00 00 	leal	5060(%ebx), %eax
     e9f:	eb cf 	jmp	-49 <_print_pyobj+0x130>
     ea1:	8a 83 ff 15 00 00 	movb	5631(%ebx), %al
     ea7:	84 c0 	testb	%al, %al
     ea9:	74 49 	je	73 <_print_pyobj+0x1B4>
     eab:	80 bb 00 16 00 00 00 	cmpb	$0, 5632(%ebx)
     eb2:	8d 83 a7 13 00 00 	leal	5031(%ebx), %eax
     eb8:	8d 8b ac 13 00 00 	leal	5036(%ebx), %ecx
     ebe:	0f 45 c8 	cmovnel	%eax, %ecx
     ec1:	e9 93 00 00 00 	jmp	147 <_print_pyobj+0x219>
     ec6:	89 bd 68 ff ff ff 	movl	%edi, -152(%ebp)
     ecc:	c6 83 01 16 00 00 01 	movb	$1, 5633(%ebx)
     ed3:	c7 83 0b 16 00 00 00 00 00 00 	movl	$0, 5643(%ebx)
     edd:	c7 83 07 16 00 00 00 00 00 00 	movl	$0, 5639(%ebx)
     ee7:	b0 01 	movb	$1, %al
     ee9:	89 85 5c ff ff ff 	movl	%eax, -164(%ebp)
     eef:	e9 8f 01 00 00 	jmp	399 <_print_pyobj+0x343>
     ef4:	c6 83 ff 15 00 00 01 	movb	$1, 5631(%ebx)
     efb:	8a 85 70 ff ff ff 	movb	-144(%ebp), %al
     f01:	3c 2d 	cmpb	$45, %al
     f03:	0f 94 83 00 16 00 00 	sete	5632(%ebx)
     f0a:	3c 2d 	cmpb	$45, %al
     f0c:	8d 8d 71 ff ff ff 	leal	-143(%ebp), %ecx
     f12:	8d b5 70 ff ff ff 	leal	-144(%ebp), %esi
     f18:	0f 45 ce 	cmovnel	%esi, %ecx
     f1b:	8a 01 	movb	(%ecx), %al
     f1d:	84 c0 	testb	%al, %al
     f1f:	74 21 	je	33 <_print_pyobj+0x202>
     f21:	41 	incl	%ecx
     f22:	66 66 66 66 66 2e 0f 1f 84 00 00 00 00 00 	nopw	%cs:(%eax,%eax)
     f30:	0f be d0 	movsbl	%al, %edx
     f33:	83 c2 d0 	addl	$-48, %edx
     f36:	83 fa 09 	cmpl	$9, %edx
     f39:	77 09 	ja	9 <_print_pyobj+0x204>
     f3b:	8a 01 	movb	(%ecx), %al
     f3d:	41 	incl	%ecx
     f3e:	84 c0 	testb	%al, %al
     f40:	75 ee 	jne	-18 <_print_pyobj+0x1F0>
     f42:	31 c0 	xorl	%eax, %eax
     f44:	84 c0 	testb	%al, %al
     f46:	8d 83 b0 13 00 00 	leal	5040(%ebx), %eax
     f4c:	8d 8b b3 13 00 00 	leal	5043(%ebx), %ecx
     f52:	0f 45 c8 	cmovnel	%eax, %ecx
     f55:	89 74 24 04 	movl	%esi, 4(%esp)
     f59:	89 0c 24 	movl	%ecx, (%esp)
     f5c:	e8 9f f0 ff ff 	calll	-3937 <_min>
     f61:	8b 07 	movl	(%edi), %eax
     f63:	3b 45 f0 	cmpl	-16(%ebp), %eax
     f66:	0f 85 fc 02 00 00 	jne	764 <_print_pyobj+0x528>
     f6c:	81 c4 cc 00 00 00 	addl	$204, %esp
     f72:	5e 	popl	%esi
     f73:	5f 	popl	%edi
     f74:	5b 	popl	%ebx
     f75:	5d 	popl	%ebp
     f76:	c3 	retl
     f77:	8b 46 04 	movl	4(%esi), %eax
     f7a:	89 85 6c ff ff ff 	movl	%eax, -148(%ebp)
     f80:	89 83 0f 16 00 00 	movl	%eax, 5647(%ebx)
     f86:	b9 01 00 00 00 	movl	$1, %ecx
     f8b:	89 8d 60 ff ff ff 	movl	%ecx, -160(%ebp)
     f91:	89 9d 64 ff ff ff 	movl	%ebx, -156(%ebp)
     f97:	89 bd 68 ff ff ff 	movl	%edi, -152(%ebp)
     f9d:	8b 76 08 	movl	8(%esi), %esi
     fa0:	c7 04 24 5b 00 00 00 	movl	$91, (%esp)
     fa7:	e8 54 f0 ff ff 	calll	-4012 <_min>
     fac:	85 f6 	testl	%esi, %esi
     fae:	0f 84 8b 00 00 00 	je	139 <_print_pyobj+0x2FF>
     fb4:	f7 de 	negl	%esi
     fb6:	31 ff 	xorl	%edi, %edi
     fb8:	8b 85 64 ff ff ff 	movl	-156(%ebp), %eax
     fbe:	8d 88 c4 13 00 00 	leal	5060(%eax), %ecx
     fc4:	89 8d 54 ff ff ff 	movl	%ecx, -172(%ebp)
     fca:	8d 80 c1 13 00 00 	leal	5057(%eax), %eax
     fd0:	89 85 50 ff ff ff 	movl	%eax, -176(%ebp)
     fd6:	eb 18 	jmp	24 <_print_pyobj+0x2B0>
     fd8:	8b 85 54 ff ff ff 	movl	-172(%ebp), %eax
     fde:	89 04 24 	movl	%eax, (%esp)
     fe1:	e8 1a f0 ff ff 	calll	-4070 <_min>
     fe6:	83 fb ff 	cmpl	$-1, %ebx
     fe9:	75 3f 	jne	63 <_print_pyobj+0x2EA>
     feb:	eb 4b 	jmp	75 <_print_pyobj+0x2F8>
     fed:	0f 1f 00 	nopl	(%eax)
     ff0:	8b 85 6c ff ff ff 	movl	-148(%ebp), %eax
     ff6:	8b 0c b8 	movl	(%eax,%edi,4), %ecx
     ff9:	89 c8 	movl	%ecx, %eax
     ffb:	83 e0 03 	andl	$3, %eax
     ffe:	83 f8 03 	cmpl	$3, %eax
    1001:	8d 1c 3e 	leal	(%esi,%edi), %ebx
    1004:	75 1a 	jne	26 <_print_pyobj+0x2E0>
    1006:	89 c8 	movl	%ecx, %eax
    1008:	83 e0 fc 	andl	$-4, %eax
    100b:	83 38 00 	cmpl	$0, (%eax)
    100e:	75 10 	jne	16 <_print_pyobj+0x2E0>
    1010:	8b 95 6c ff ff ff 	movl	-148(%ebp), %edx
    1016:	39 50 04 	cmpl	%edx, 4(%eax)
    1019:	74 bd 	je	-67 <_print_pyobj+0x298>
    101b:	0f 1f 44 00 00 	nopl	(%eax,%eax)
    1020:	e8 1b fd ff ff 	calll	-741 <_print_pyobj>
    1025:	83 fb ff 	cmpl	$-1, %ebx
    1028:	74 0e 	je	14 <_print_pyobj+0x2F8>
    102a:	8b 85 50 ff ff ff 	movl	-176(%ebp), %eax
    1030:	89 04 24 	movl	%eax, (%esp)
    1033:	e8 c8 ef ff ff 	calll	-4152 <_min>
    1038:	47 	incl	%edi
    1039:	89 f0 	movl	%esi, %eax
    103b:	01 f8 	addl	%edi, %eax
    103d:	75 b1 	jne	-79 <_print_pyobj+0x2B0>
    103f:	c7 04 24 5d 00 00 00 	movl	$93, (%esp)
    1046:	e8 b5 ef ff ff 	calll	-4171 <_min>
    104b:	83 bd 60 ff ff ff 00 	cmpl	$0, -160(%ebp)
    1052:	8b bd 68 ff ff ff 	movl	-152(%ebp), %edi
    1058:	8b 85 64 ff ff ff 	movl	-156(%ebp), %eax
    105e:	0f 84 fd fe ff ff 	je	-259 <_print_pyobj+0x221>
    1064:	c7 80 0f 16 00 00 00 00 00 00 	movl	$0, 5647(%eax)
    106e:	e9 ee fe ff ff 	jmp	-274 <_print_pyobj+0x221>
    1073:	c7 85 5c ff ff ff 00 00 00 00 	movl	$0, -164(%ebp)
    107d:	89 bd 68 ff ff ff 	movl	%edi, -152(%ebp)
    1083:	c7 04 24 7b 00 00 00 	movl	$123, (%esp)
    108a:	e8 71 ef ff ff 	calll	-4239 <_min>
    108f:	8b 46 04 	movl	4(%esi), %eax
    1092:	89 04 24 	movl	%eax, (%esp)
    1095:	e8 66 ef ff ff 	calll	-4250 <_min>
    109a:	89 f1 	movl	%esi, %ecx
    109c:	89 c6 	movl	%eax, %esi
    109e:	8b 41 04 	movl	4(%ecx), %eax
    10a1:	89 04 24 	movl	%eax, (%esp)
    10a4:	e8 57 ef ff ff 	calll	-4265 <_min>
    10a9:	89 b5 6c ff ff ff 	movl	%esi, -148(%ebp)
    10af:	85 f6 	testl	%esi, %esi
    10b1:	89 c6 	movl	%eax, %esi
    10b3:	0f 84 65 01 00 00 	je	357 <_print_pyobj+0x4DE>
    10b9:	ff 8d 6c ff ff ff 	decl	-148(%ebp)
    10bf:	31 ff 	xorl	%edi, %edi
    10c1:	8d 83 be 13 00 00 	leal	5054(%ebx), %eax
    10c7:	89 85 54 ff ff ff 	movl	%eax, -172(%ebp)
    10cd:	8d 83 c1 13 00 00 	leal	5057(%ebx), %eax
    10d3:	89 85 48 ff ff ff 	movl	%eax, -184(%ebp)
    10d9:	8d 83 b8 13 00 00 	leal	5048(%ebx), %eax
    10df:	89 85 44 ff ff ff 	movl	%eax, -188(%ebp)
    10e5:	89 9d 64 ff ff ff 	movl	%ebx, -156(%ebp)
    10eb:	89 b5 50 ff ff ff 	movl	%esi, -176(%ebp)
    10f1:	66 66 66 66 66 66 2e 0f 1f 84 00 00 00 00 00 	nopw	%cs:(%eax,%eax)
    1100:	8b 46 04 	movl	4(%esi), %eax
    1103:	8b 08 	movl	(%eax), %ecx
    1105:	8b 40 04 	movl	4(%eax), %eax
    1108:	8b 09 	movl	(%ecx), %ecx
    110a:	8b 30 	movl	(%eax), %esi
    110c:	e8 2f fc ff ff 	calll	-977 <_print_pyobj>
    1111:	8b 85 54 ff ff ff 	movl	-172(%ebp), %eax
    1117:	89 04 24 	movl	%eax, (%esp)
    111a:	e8 e1 ee ff ff 	calll	-4383 <_min>
    111f:	8b 83 0b 16 00 00 	movl	5643(%ebx), %eax
    1125:	85 c0 	testl	%eax, %eax
    1127:	74 21 	je	33 <_print_pyobj+0x40A>
    1129:	8b 8b 07 16 00 00 	movl	5639(%ebx), %ecx
    112f:	31 d2 	xorl	%edx, %edx
    1131:	66 66 66 66 66 66 2e 0f 1f 84 00 00 00 00 00 	nopw	%cs:(%eax,%eax)
    1140:	39 34 91 	cmpl	%esi, (%ecx,%edx,4)
    1143:	74 16 	je	22 <_print_pyobj+0x41B>
    1145:	42 	incl	%edx
    1146:	39 c2 	cmpl	%eax, %edx
    1148:	72 f6 	jb	-10 <_print_pyobj+0x400>
    114a:	89 f1 	movl	%esi, %ecx
    114c:	8b 95 60 ff ff ff 	movl	-160(%ebp), %edx
    1152:	e8 79 0b 00 00 	calll	2937 <_equal_pyobj>
    1157:	85 c0 	testl	%eax, %eax
    1159:	74 15 	je	21 <_print_pyobj+0x430>
    115b:	8b 85 44 ff ff ff 	movl	-188(%ebp), %eax
    1161:	89 04 24 	movl	%eax, (%esp)
    1164:	e8 97 ee ff ff 	calll	-4457 <_min>
    1169:	e9 83 00 00 00 	jmp	131 <_print_pyobj+0x4B1>
    116e:	66 90 	nop
    1170:	8b 83 07 16 00 00 	movl	5639(%ebx), %eax
    1176:	89 85 58 ff ff ff 	movl	%eax, -168(%ebp)
    117c:	8b 9b 0b 16 00 00 	movl	5643(%ebx), %ebx
    1182:	8d 43 01 	leal	1(%ebx), %eax
    1185:	89 85 4c ff ff ff 	movl	%eax, -180(%ebp)
    118b:	8d 04 9d 04 00 00 00 	leal	4(,%ebx,4), %eax
    1192:	89 04 24 	movl	%eax, (%esp)
    1195:	e8 66 ee ff ff 	calll	-4506 <_min>
    119a:	89 c1 	movl	%eax, %ecx
    119c:	85 db 	testl	%ebx, %ebx
    119e:	74 27 	je	39 <_print_pyobj+0x487>
    11a0:	c1 e3 02 	shll	$2, %ebx
    11a3:	89 5c 24 08 	movl	%ebx, 8(%esp)
    11a7:	8b 85 58 ff ff ff 	movl	-168(%ebp), %eax
    11ad:	89 44 24 04 	movl	%eax, 4(%esp)
    11b1:	89 0c 24 	movl	%ecx, (%esp)
    11b4:	89 8d 58 ff ff ff 	movl	%ecx, -168(%ebp)
    11ba:	e8 41 ee ff ff 	calll	-4543 <_min>
    11bf:	8b 8d 58 ff ff ff 	movl	-168(%ebp), %ecx
    11c5:	eb 02 	jmp	2 <_print_pyobj+0x489>
    11c7:	31 db 	xorl	%ebx, %ebx
    11c9:	8b 85 60 ff ff ff 	movl	-160(%ebp), %eax
    11cf:	89 04 19 	movl	%eax, (%ecx,%ebx)
    11d2:	8b 9d 64 ff ff ff 	movl	-156(%ebp), %ebx
    11d8:	8b 85 4c ff ff ff 	movl	-180(%ebp), %eax
    11de:	89 83 0b 16 00 00 	movl	%eax, 5643(%ebx)
    11e4:	89 8b 07 16 00 00 	movl	%ecx, 5639(%ebx)
    11ea:	89 f1 	movl	%esi, %ecx
    11ec:	e8 4f fb ff ff 	calll	-1201 <_print_pyobj>
    11f1:	3b bd 6c ff ff ff 	cmpl	-148(%ebp), %edi
    11f7:	8b b5 50 ff ff ff 	movl	-176(%ebp), %esi
    11fd:	74 0e 	je	14 <_print_pyobj+0x4CD>
    11ff:	8b 85 48 ff ff ff 	movl	-184(%ebp), %eax
    1205:	89 04 24 	movl	%eax, (%esp)
    1208:	e8 f3 ed ff ff 	calll	-4621 <_min>
    120d:	47 	incl	%edi
    120e:	89 34 24 	movl	%esi, (%esp)
    1211:	e8 ea ed ff ff 	calll	-4630 <_min>
    1216:	85 c0 	testl	%eax, %eax
    1218:	0f 85 e2 fe ff ff 	jne	-286 <_print_pyobj+0x3C0>
    121e:	c7 04 24 7d 00 00 00 	movl	$125, (%esp)
    1225:	e8 d6 ed ff ff 	calll	-4650 <_min>
    122a:	80 bd 5c ff ff ff 00 	cmpb	$0, -164(%ebp)
    1231:	8b bd 68 ff ff ff 	movl	-152(%ebp), %edi
    1237:	0f 84 24 fd ff ff 	je	-732 <_print_pyobj+0x221>
    123d:	c6 83 01 16 00 00 00 	movb	$0, 5633(%ebx)
    1244:	c7 83 0b 16 00 00 00 00 00 00 	movl	$0, 5643(%ebx)
    124e:	c7 83 07 16 00 00 00 00 00 00 	movl	$0, 5639(%ebx)
    1258:	e9 04 fd ff ff 	jmp	-764 <_print_pyobj+0x221>
    125d:	8d 83 b8 13 00 00 	leal	5048(%ebx), %eax
    1263:	e9 08 fc ff ff 	jmp	-1016 <_print_pyobj+0x130>
    1268:	e8 93 ed ff ff 	calll	-4717 <_min>
    126d:	8d 83 c5 12 00 00 	leal	4805(%ebx), %eax
    1273:	89 44 24 0c 	movl	%eax, 12(%esp)
    1277:	8d 83 4a 11 00 00 	leal	4426(%ebx), %eax
    127d:	89 44 24 04 	movl	%eax, 4(%esp)
    1281:	8d 83 8a 13 00 00 	leal	5002(%ebx), %eax
    1287:	89 04 24 	movl	%eax, (%esp)
    128a:	c7 44 24 08 a2 00 00 00 	movl	$162, 8(%esp)
    1292:	e8 69 ed ff ff 	calll	-4759 <_min>
    1297:	83 ec 10 	subl	$16, %esp
    129a:	66 0f 1f 44 00 00 	nopw	(%eax,%eax)

_is_true:
    12a0:	55 	pushl	%ebp
    12a1:	89 e5 	movl	%esp, %ebp
    12a3:	57 	pushl	%edi
    12a4:	56 	pushl	%esi
    12a5:	e8 00 00 00 00 	calll	0 <_is_true+0xA>
    12aa:	5e 	popl	%esi
    12ab:	8b 4d 08 	movl	8(%ebp), %ecx
    12ae:	89 c8 	movl	%ecx, %eax
    12b0:	24 03 	andb	$3, %al
    12b2:	3c 01 	cmpb	$1, %al
    12b4:	74 26 	je	38 <_is_true+0x3C>
    12b6:	3c 02 	cmpb	$2, %al
    12b8:	74 22 	je	34 <_is_true+0x3C>
    12ba:	3c 03 	cmpb	$3, %al
    12bc:	75 1e 	jne	30 <_is_true+0x3C>
    12be:	83 e1 fc 	andl	$-4, %ecx
    12c1:	8b 11 	movl	(%ecx), %edx
    12c3:	b0 01 	movb	$1, %al
    12c5:	8d 7a fe 	leal	-2(%edx), %edi
    12c8:	83 ff 03 	cmpl	$3, %edi
    12cb:	72 2c 	jb	44 <_is_true+0x59>
    12cd:	83 fa 01 	cmpl	$1, %edx
    12d0:	74 14 	je	20 <_is_true+0x46>
    12d2:	85 d2 	testl	%edx, %edx
    12d4:	75 2a 	jne	42 <_is_true+0x60>
    12d6:	83 79 08 00 	cmpl	$0, 8(%ecx)
    12da:	eb 1a 	jmp	26 <_is_true+0x56>
    12dc:	31 c0 	xorl	%eax, %eax
    12de:	83 f9 03 	cmpl	$3, %ecx
    12e1:	0f 97 c0 	seta	%al
    12e4:	eb 16 	jmp	22 <_is_true+0x5C>
    12e6:	83 ec 0c 	subl	$12, %esp
    12e9:	ff 71 04 	pushl	4(%ecx)
    12ec:	e8 0f ed ff ff 	calll	-4849 <_min>
    12f1:	83 c4 10 	addl	$16, %esp
    12f4:	85 c0 	testl	%eax, %eax
    12f6:	0f 95 c0 	setne	%al
    12f9:	0f b6 c0 	movzbl	%al, %eax
    12fc:	5e 	popl	%esi
    12fd:	5f 	popl	%edi
    12fe:	5d 	popl	%ebp
    12ff:	c3 	retl
    1300:	83 ec 0c 	subl	$12, %esp
    1303:	8d 86 56 0f 00 00 	leal	3926(%esi), %eax
    1309:	50 	pushl	%eax
    130a:	e8 f1 ec ff ff 	calll	-4879 <_min>
    130f:	83 c4 10 	addl	$16, %esp
    1312:	8d 86 6c 0d 00 00 	leal	3436(%esi), %eax
    1318:	8d 8e f1 0b 00 00 	leal	3057(%esi), %ecx
    131e:	8d 96 7c 0d 00 00 	leal	3452(%esi), %edx
    1324:	50 	pushl	%eax
    1325:	68 ef 02 00 00 	pushl	$751
    132a:	51 	pushl	%ecx
    132b:	52 	pushl	%edx
    132c:	e8 cf ec ff ff 	calll	-4913 <_min>
    1331:	66 66 66 66 66 66 2e 0f 1f 84 00 00 00 00 00 	nopw	%cs:(%eax,%eax)

_create_closure:
    1340:	55 	pushl	%ebp
    1341:	89 e5 	movl	%esp, %ebp
    1343:	57 	pushl	%edi
    1344:	56 	pushl	%esi
    1345:	83 ec 10 	subl	$16, %esp
    1348:	8b 75 0c 	movl	12(%ebp), %esi
    134b:	8b 7d 08 	movl	8(%ebp), %edi
    134e:	c7 04 24 1c 00 00 00 	movl	$28, (%esp)
    1355:	e8 a6 ec ff ff 	calll	-4954 <_min>
    135a:	c7 00 02 00 00 00 	movl	$2, (%eax)
    1360:	89 78 04 	movl	%edi, 4(%eax)
    1363:	89 70 08 	movl	%esi, 8(%eax)
    1366:	83 c4 10 	addl	$16, %esp
    1369:	5e 	popl	%esi
    136a:	5f 	popl	%edi
    136b:	5d 	popl	%ebp
    136c:	c3 	retl
    136d:	0f 1f 00 	nopl	(%eax)

_get_fun_ptr:
    1370:	55 	pushl	%ebp
    1371:	89 e5 	movl	%esp, %ebp
    1373:	83 ec 08 	subl	$8, %esp
    1376:	e8 00 00 00 00 	calll	0 <_get_fun_ptr+0xB>
    137b:	58 	popl	%eax
    137c:	8b 4d 08 	movl	8(%ebp), %ecx
    137f:	89 ca 	movl	%ecx, %edx
    1381:	83 e2 03 	andl	$3, %edx
    1384:	83 fa 03 	cmpl	$3, %edx
    1387:	75 10 	jne	16 <_get_fun_ptr+0x29>
    1389:	83 e1 fc 	andl	$-4, %ecx
    138c:	83 39 02 	cmpl	$2, (%ecx)
    138f:	75 1f 	jne	31 <_get_fun_ptr+0x40>
    1391:	8b 41 04 	movl	4(%ecx), %eax
    1394:	83 c4 08 	addl	$8, %esp
    1397:	5d 	popl	%ebp
    1398:	c3 	retl
    1399:	8d 88 c0 0b 00 00 	leal	3008(%eax), %ecx
    139f:	8d 90 20 0b 00 00 	leal	2848(%eax), %edx
    13a5:	8d 80 b4 0b 00 00 	leal	2996(%eax), %eax
    13ab:	51 	pushl	%ecx
    13ac:	6a 5c 	pushl	$92
    13ae:	eb 18 	jmp	24 <_get_fun_ptr+0x58>
    13b0:	8d 88 bf 0c 00 00 	leal	3263(%eax), %ecx
    13b6:	8d 90 20 0b 00 00 	leal	2848(%eax), %edx
    13bc:	8d 80 b3 0c 00 00 	leal	3251(%eax), %eax
    13c2:	51 	pushl	%ecx
    13c3:	68 0a 03 00 00 	pushl	$778
    13c8:	52 	pushl	%edx
    13c9:	50 	pushl	%eax
    13ca:	e8 31 ec ff ff 	calll	-5071 <_min>
    13cf:	90 	nop

_get_free_vars:
    13d0:	55 	pushl	%ebp
    13d1:	89 e5 	movl	%esp, %ebp
    13d3:	83 ec 08 	subl	$8, %esp
    13d6:	e8 00 00 00 00 	calll	0 <_get_free_vars+0xB>
    13db:	58 	popl	%eax
    13dc:	8b 4d 08 	movl	8(%ebp), %ecx
    13df:	89 ca 	movl	%ecx, %edx
    13e1:	83 e2 03 	andl	$3, %edx
    13e4:	83 fa 03 	cmpl	$3, %edx
    13e7:	75 10 	jne	16 <_get_free_vars+0x29>
    13e9:	83 e1 fc 	andl	$-4, %ecx
    13ec:	83 39 02 	cmpl	$2, (%ecx)
    13ef:	75 1f 	jne	31 <_get_free_vars+0x40>
    13f1:	8b 41 08 	movl	8(%ecx), %eax
    13f4:	83 c4 08 	addl	$8, %esp
    13f7:	5d 	popl	%ebp
    13f8:	c3 	retl
    13f9:	8d 88 60 0b 00 00 	leal	2912(%eax), %ecx
    13ff:	8d 90 c0 0a 00 00 	leal	2752(%eax), %edx
    1405:	8d 80 54 0b 00 00 	leal	2900(%eax), %eax
    140b:	51 	pushl	%ecx
    140c:	6a 5c 	pushl	$92
    140e:	eb 18 	jmp	24 <_get_free_vars+0x58>
    1410:	8d 88 5f 0c 00 00 	leal	3167(%eax), %ecx
    1416:	8d 90 c0 0a 00 00 	leal	2752(%eax), %edx
    141c:	8d 80 6d 0c 00 00 	leal	3181(%eax), %eax
    1422:	51 	pushl	%ecx
    1423:	68 10 03 00 00 	pushl	$784
    1428:	52 	pushl	%edx
    1429:	50 	pushl	%eax
    142a:	e8 d1 eb ff ff 	calll	-5167 <_min>
    142f:	90 	nop

_set_free_vars:
    1430:	55 	pushl	%ebp
    1431:	89 e5 	movl	%esp, %ebp
    1433:	83 ec 08 	subl	$8, %esp
    1436:	e8 00 00 00 00 	calll	0 <_set_free_vars+0xB>
    143b:	59 	popl	%ecx
    143c:	8b 45 08 	movl	8(%ebp), %eax
    143f:	83 38 02 	cmpl	$2, (%eax)
    1442:	75 0b 	jne	11 <_set_free_vars+0x1F>
    1444:	8b 4d 0c 	movl	12(%ebp), %ecx
    1447:	89 48 08 	movl	%ecx, 8(%eax)
    144a:	83 c4 08 	addl	$8, %esp
    144d:	5d 	popl	%ebp
    144e:	c3 	retl
    144f:	8d 81 ff 0b 00 00 	leal	3071(%ecx), %eax
    1455:	8d 91 60 0a 00 00 	leal	2656(%ecx), %edx
    145b:	8d 89 1b 0c 00 00 	leal	3099(%ecx), %ecx
    1461:	50 	pushl	%eax
    1462:	68 15 03 00 00 	pushl	$789
    1467:	52 	pushl	%edx
    1468:	51 	pushl	%ecx
    1469:	e8 92 eb ff ff 	calll	-5230 <_min>
    146e:	66 90 	nop

_create_class:
    1470:	55 	pushl	%ebp
    1471:	89 e5 	movl	%esp, %ebp
    1473:	53 	pushl	%ebx
    1474:	57 	pushl	%edi
    1475:	56 	pushl	%esi
    1476:	83 ec 0c 	subl	$12, %esp
    1479:	e8 00 00 00 00 	calll	0 <_create_class+0xE>
    147e:	5b 	popl	%ebx
    147f:	8b 7d 08 	movl	8(%ebp), %edi
    1482:	83 ec 0c 	subl	$12, %esp
    1485:	6a 1c 	pushl	$28
    1487:	e8 74 eb ff ff 	calll	-5260 <_min>
    148c:	83 c4 10 	addl	$16, %esp
    148f:	89 c6 	movl	%eax, %esi
    1491:	c7 06 03 00 00 00 	movl	$3, (%esi)
    1497:	83 ec 04 	subl	$4, %esp
    149a:	8d 83 22 01 00 00 	leal	290(%ebx), %eax
    14a0:	8d 8b e2 00 00 00 	leal	226(%ebx), %ecx
    14a6:	50 	pushl	%eax
    14a7:	51 	pushl	%ecx
    14a8:	6a 02 	pushl	$2
    14aa:	e8 51 eb ff ff 	calll	-5295 <_min>
    14af:	83 c4 10 	addl	$16, %esp
    14b2:	89 46 04 	movl	%eax, 4(%esi)
    14b5:	89 f8 	movl	%edi, %eax
    14b7:	83 e0 03 	andl	$3, %eax
    14ba:	83 f8 03 	cmpl	$3, %eax
    14bd:	75 78 	jne	120 <_create_class+0xC7>
    14bf:	83 e7 fc 	andl	$-4, %edi
    14c2:	83 3f 00 	cmpl	$0, (%edi)
    14c5:	75 63 	jne	99 <_create_class+0xBA>
    14c7:	8b 5f 08 	movl	8(%edi), %ebx
    14ca:	89 5e 08 	movl	%ebx, 8(%esi)
    14cd:	8d 04 9d 00 00 00 00 	leal	(,%ebx,4), %eax
    14d4:	8d 04 40 	leal	(%eax,%eax,2), %eax
    14d7:	83 ec 0c 	subl	$12, %esp
    14da:	50 	pushl	%eax
    14db:	e8 20 eb ff ff 	calll	-5344 <_min>
    14e0:	83 c4 10 	addl	$16, %esp
    14e3:	89 46 0c 	movl	%eax, 12(%esi)
    14e6:	85 db 	testl	%ebx, %ebx
    14e8:	74 36 	je	54 <_create_class+0xB0>
    14ea:	31 c9 	xorl	%ecx, %ecx
    14ec:	0f 1f 40 00 	nopl	(%eax)
    14f0:	8b 57 04 	movl	4(%edi), %edx
    14f3:	8b 14 8a 	movl	(%edx,%ecx,4), %edx
    14f6:	89 d3 	movl	%edx, %ebx
    14f8:	83 e3 03 	andl	$3, %ebx
    14fb:	83 fb 03 	cmpl	$3, %ebx
    14fe:	75 2a 	jne	42 <_create_class+0xBA>
    1500:	83 e2 fc 	andl	$-4, %edx
    1503:	83 3a 03 	cmpl	$3, (%edx)
    1506:	75 22 	jne	34 <_create_class+0xBA>
    1508:	8b 5a 0c 	movl	12(%edx), %ebx
    150b:	89 58 08 	movl	%ebx, 8(%eax)
    150e:	f2 0f 10 42 04 	movsd	4(%edx), %xmm0
    1513:	f2 0f 11 00 	movsd	%xmm0, (%eax)
    1517:	41 	incl	%ecx
    1518:	83 c0 0c 	addl	$12, %eax
    151b:	3b 4e 08 	cmpl	8(%esi), %ecx
    151e:	75 d0 	jne	-48 <_create_class+0x80>
    1520:	89 f0 	movl	%esi, %eax
    1522:	83 c4 0c 	addl	$12, %esp
    1525:	5e 	popl	%esi
    1526:	5f 	popl	%edi
    1527:	5b 	popl	%ebx
    1528:	5d 	popl	%ebp
    1529:	c3 	retl
    152a:	83 ec 0c 	subl	$12, %esp
    152d:	6a ff 	pushl	$-1
    152f:	e8 cc ea ff ff 	calll	-5428 <_min>
    1534:	83 c4 0c 	addl	$12, %esp
    1537:	8d 83 bd 0a 00 00 	leal	2749(%ebx), %eax
    153d:	8d 8b 1d 0a 00 00 	leal	2589(%ebx), %ecx
    1543:	8d 93 b1 0a 00 00 	leal	2737(%ebx), %edx
    1549:	50 	pushl	%eax
    154a:	6a 5c 	pushl	$92
    154c:	51 	pushl	%ecx
    154d:	52 	pushl	%edx
    154e:	e8 ad ea ff ff 	calll	-5459 <_min>
    1553:	66 66 66 66 2e 0f 1f 84 00 00 00 00 00 	nopw	%cs:(%eax,%eax)

_attrname_hash:
    1560:	55 	pushl	%ebp
    1561:	89 e5 	movl	%esp, %ebp
    1563:	56 	pushl	%esi
    1564:	8b 4d 08 	movl	8(%ebp), %ecx
    1567:	8a 11 	movb	(%ecx), %dl
    1569:	84 d2 	testb	%dl, %dl
    156b:	74 2b 	je	43 <_attrname_hash+0x38>
    156d:	41 	incl	%ecx
    156e:	be 05 15 00 00 	movl	$5381, %esi
    1573:	66 66 66 66 2e 0f 1f 84 00 00 00 00 00 	nopw	%cs:(%eax,%eax)
    1580:	0f b6 d2 	movzbl	%dl, %edx
    1583:	89 f0 	movl	%esi, %eax
    1585:	c1 e0 05 	shll	$5, %eax
    1588:	01 f0 	addl	%esi, %eax
    158a:	31 d0 	xorl	%edx, %eax
    158c:	0f b6 11 	movzbl	(%ecx), %edx
    158f:	41 	incl	%ecx
    1590:	84 d2 	testb	%dl, %dl
    1592:	89 c6 	movl	%eax, %esi
    1594:	75 ea 	jne	-22 <_attrname_hash+0x20>
    1596:	eb 05 	jmp	5 <_attrname_hash+0x3D>
    1598:	b8 05 15 00 00 	movl	$5381, %eax
    159d:	5e 	popl	%esi
    159e:	5d 	popl	%ebp
    159f:	c3 	retl

_attrname_equal:
    15a0:	55 	pushl	%ebp
    15a1:	89 e5 	movl	%esp, %ebp
    15a3:	83 ec 08 	subl	$8, %esp
    15a6:	83 ec 08 	subl	$8, %esp
    15a9:	ff 75 0c 	pushl	12(%ebp)
    15ac:	ff 75 08 	pushl	8(%ebp)
    15af:	e8 4c ea ff ff 	calll	-5556 <_min>
    15b4:	83 c4 10 	addl	$16, %esp
    15b7:	31 c9 	xorl	%ecx, %ecx
    15b9:	85 c0 	testl	%eax, %eax
    15bb:	0f 94 c1 	sete	%cl
    15be:	89 c8 	movl	%ecx, %eax
    15c0:	83 c4 08 	addl	$8, %esp
    15c3:	5d 	popl	%ebp
    15c4:	c3 	retl
    15c5:	66 66 2e 0f 1f 84 00 00 00 00 00 	nopw	%cs:(%eax,%eax)

_create_object:
    15d0:	55 	pushl	%ebp
    15d1:	89 e5 	movl	%esp, %ebp
    15d3:	53 	pushl	%ebx
    15d4:	57 	pushl	%edi
    15d5:	56 	pushl	%esi
    15d6:	83 ec 0c 	subl	$12, %esp
    15d9:	e8 00 00 00 00 	calll	0 <_create_object+0xE>
    15de:	5f 	popl	%edi
    15df:	8b 5d 08 	movl	8(%ebp), %ebx
    15e2:	83 ec 0c 	subl	$12, %esp
    15e5:	6a 1c 	pushl	$28
    15e7:	e8 14 ea ff ff 	calll	-5612 <_min>
    15ec:	83 c4 10 	addl	$16, %esp
    15ef:	89 c6 	movl	%eax, %esi
    15f1:	c7 06 04 00 00 00 	movl	$4, (%esi)
    15f7:	89 d8 	movl	%ebx, %eax
    15f9:	83 e0 03 	andl	$3, %eax
    15fc:	83 f8 03 	cmpl	$3, %eax
    15ff:	75 40 	jne	64 <_create_object+0x71>
    1601:	83 e3 fc 	andl	$-4, %ebx
    1604:	83 3b 03 	cmpl	$3, (%ebx)
    1607:	75 54 	jne	84 <_create_object+0x8D>
    1609:	8b 43 0c 	movl	12(%ebx), %eax
    160c:	89 46 10 	movl	%eax, 16(%esi)
    160f:	f2 0f 10 43 04 	movsd	4(%ebx), %xmm0
    1614:	f2 0f 11 46 08 	movsd	%xmm0, 8(%esi)
    1619:	83 ec 04 	subl	$4, %esp
    161c:	8d 87 c2 ff ff ff 	leal	-62(%edi), %eax
    1622:	8d 8f 82 ff ff ff 	leal	-126(%edi), %ecx
    1628:	50 	pushl	%eax
    1629:	51 	pushl	%ecx
    162a:	6a 02 	pushl	$2
    162c:	e8 cf e9 ff ff 	calll	-5681 <_min>
    1631:	83 c4 10 	addl	$16, %esp
    1634:	89 46 04 	movl	%eax, 4(%esi)
    1637:	89 f0 	movl	%esi, %eax
    1639:	83 c4 0c 	addl	$12, %esp
    163c:	5e 	popl	%esi
    163d:	5f 	popl	%edi
    163e:	5b 	popl	%ebx
    163f:	5d 	popl	%ebp
    1640:	c3 	retl
    1641:	8d 87 5d 09 00 00 	leal	2397(%edi), %eax
    1647:	8d 8f bd 08 00 00 	leal	2237(%edi), %ecx
    164d:	8d 97 51 09 00 00 	leal	2385(%edi), %edx
    1653:	50 	pushl	%eax
    1654:	6a 5c 	pushl	$92
    1656:	51 	pushl	%ecx
    1657:	52 	pushl	%edx
    1658:	e8 a3 e9 ff ff 	calll	-5725 <_min>
    165d:	83 ec 0c 	subl	$12, %esp
    1660:	8d 87 52 0c 00 00 	leal	3154(%edi), %eax
    1666:	50 	pushl	%eax
    1667:	e8 94 e9 ff ff 	calll	-5740 <_min>
    166c:	83 c4 04 	addl	$4, %esp
    166f:	6a ff 	pushl	$-1
    1671:	e8 8a e9 ff ff 	calll	-5750 <_min>
    1676:	83 c4 0c 	addl	$12, %esp
    1679:	0f 1f 80 00 00 00 00 	nopl	(%eax)

_has_attr:
    1680:	55 	pushl	%ebp
    1681:	89 e5 	movl	%esp, %ebp
    1683:	57 	pushl	%edi
    1684:	56 	pushl	%esi
    1685:	8b 75 08 	movl	8(%ebp), %esi
    1688:	89 f0 	movl	%esi, %eax
    168a:	83 e0 03 	andl	$3, %eax
    168d:	83 f8 03 	cmpl	$3, %eax
    1690:	75 12 	jne	18 <_has_attr+0x24>
    1692:	8b 7d 0c 	movl	12(%ebp), %edi
    1695:	83 e6 fc 	andl	$-4, %esi
    1698:	8b 06 	movl	(%esi), %eax
    169a:	83 f8 04 	cmpl	$4, %eax
    169d:	74 09 	je	9 <_has_attr+0x28>
    169f:	83 f8 03 	cmpl	$3, %eax
    16a2:	74 19 	je	25 <_has_attr+0x3D>
    16a4:	31 c9 	xorl	%ecx, %ecx
    16a6:	eb 2f 	jmp	47 <_has_attr+0x57>
    16a8:	83 ec 08 	subl	$8, %esp
    16ab:	57 	pushl	%edi
    16ac:	ff 76 04 	pushl	4(%esi)
    16af:	e8 4c e9 ff ff 	calll	-5812 <_min>
    16b4:	83 c4 10 	addl	$16, %esp
    16b7:	b1 01 	movb	$1, %cl
    16b9:	85 c0 	testl	%eax, %eax
    16bb:	75 1a 	jne	26 <_has_attr+0x57>
    16bd:	8b 4e 04 	movl	4(%esi), %ecx
    16c0:	8b 56 08 	movl	8(%esi), %edx
    16c3:	83 ec 08 	subl	$8, %esp
    16c6:	57 	pushl	%edi
    16c7:	ff 76 0c 	pushl	12(%esi)
    16ca:	e8 11 00 00 00 	calll	17 <_attrsearch_rec>
    16cf:	83 c4 10 	addl	$16, %esp
    16d2:	85 c0 	testl	%eax, %eax
    16d4:	0f 95 c1 	setne	%cl
    16d7:	0f b6 c1 	movzbl	%cl, %eax
    16da:	5e 	popl	%esi
    16db:	5f 	popl	%edi
    16dc:	5d 	popl	%ebp
    16dd:	c3 	retl
    16de:	66 90 	nop

_attrsearch_rec:
    16e0:	55 	pushl	%ebp
    16e1:	89 e5 	movl	%esp, %ebp
    16e3:	53 	pushl	%ebx
    16e4:	57 	pushl	%edi
    16e5:	56 	pushl	%esi
    16e6:	83 ec 0c 	subl	$12, %esp
    16e9:	89 d7 	movl	%edx, %edi
    16eb:	83 ec 08 	subl	$8, %esp
    16ee:	ff 75 0c 	pushl	12(%ebp)
    16f1:	51 	pushl	%ecx
    16f2:	e8 09 e9 ff ff 	calll	-5879 <_min>
    16f7:	83 c4 10 	addl	$16, %esp
    16fa:	89 c6 	movl	%eax, %esi
    16fc:	85 f6 	testl	%esi, %esi
    16fe:	74 0a 	je	10 <_attrsearch_rec+0x2A>
    1700:	89 f0 	movl	%esi, %eax
    1702:	83 c4 0c 	addl	$12, %esp
    1705:	5e 	popl	%esi
    1706:	5f 	popl	%edi
    1707:	5b 	popl	%ebx
    1708:	5d 	popl	%ebp
    1709:	c3 	retl
    170a:	31 f6 	xorl	%esi, %esi
    170c:	85 ff 	testl	%edi, %edi
    170e:	74 f0 	je	-16 <_attrsearch_rec+0x20>
    1710:	8b 5d 08 	movl	8(%ebp), %ebx
    1713:	83 c3 08 	addl	$8, %ebx
    1716:	66 2e 0f 1f 84 00 00 00 00 00 	nopw	%cs:(%eax,%eax)
    1720:	8b 4b f8 	movl	-8(%ebx), %ecx
    1723:	8b 53 fc 	movl	-4(%ebx), %edx
    1726:	83 ec 08 	subl	$8, %esp
    1729:	ff 75 0c 	pushl	12(%ebp)
    172c:	ff 33 	pushl	(%ebx)
    172e:	e8 ad ff ff ff 	calll	-83 <_attrsearch_rec>
    1733:	83 c4 10 	addl	$16, %esp
    1736:	85 c0 	testl	%eax, %eax
    1738:	75 08 	jne	8 <_attrsearch_rec+0x62>
    173a:	83 c3 0c 	addl	$12, %ebx
    173d:	4f 	decl	%edi
    173e:	75 e0 	jne	-32 <_attrsearch_rec+0x40>
    1740:	eb be 	jmp	-66 <_attrsearch_rec+0x20>
    1742:	89 c6 	movl	%eax, %esi
    1744:	eb ba 	jmp	-70 <_attrsearch_rec+0x20>
    1746:	66 2e 0f 1f 84 00 00 00 00 00 	nopw	%cs:(%eax,%eax)

_inherits:
    1750:	55 	pushl	%ebp
    1751:	89 e5 	movl	%esp, %ebp
    1753:	57 	pushl	%edi
    1754:	56 	pushl	%esi
    1755:	e8 00 00 00 00 	calll	0 <_inherits+0xA>
    175a:	58 	popl	%eax
    175b:	8b 75 08 	movl	8(%ebp), %esi
    175e:	89 f1 	movl	%esi, %ecx
    1760:	83 e1 03 	andl	$3, %ecx
    1763:	83 f9 03 	cmpl	$3, %ecx
    1766:	75 38 	jne	56 <_inherits+0x50>
    1768:	83 e6 fc 	andl	$-4, %esi
    176b:	83 3e 03 	cmpl	$3, (%esi)
    176e:	75 47 	jne	71 <_inherits+0x67>
    1770:	8b 7d 0c 	movl	12(%ebp), %edi
    1773:	89 f9 	movl	%edi, %ecx
    1775:	83 e1 03 	andl	$3, %ecx
    1778:	83 f9 03 	cmpl	$3, %ecx
    177b:	75 23 	jne	35 <_inherits+0x50>
    177d:	83 e7 fc 	andl	$-4, %edi
    1780:	83 3f 03 	cmpl	$3, (%edi)
    1783:	75 32 	jne	50 <_inherits+0x67>
    1785:	8b 4e 04 	movl	4(%esi), %ecx
    1788:	8b 56 08 	movl	8(%esi), %edx
    178b:	83 ec 08 	subl	$8, %esp
    178e:	ff 77 04 	pushl	4(%edi)
    1791:	ff 76 0c 	pushl	12(%esi)
    1794:	e8 47 00 00 00 	calll	71 <_inherits_rec>
    1799:	83 c4 10 	addl	$16, %esp
    179c:	5e 	popl	%esi
    179d:	5f 	popl	%edi
    179e:	5d 	popl	%ebp
    179f:	c3 	retl
    17a0:	8d 88 e1 07 00 00 	leal	2017(%eax), %ecx
    17a6:	8d 90 41 07 00 00 	leal	1857(%eax), %edx
    17ac:	8d 80 d5 07 00 00 	leal	2005(%eax), %eax
    17b2:	51 	pushl	%ecx
    17b3:	6a 5c 	pushl	$92
    17b5:	eb 15 	jmp	21 <_inherits+0x7C>
    17b7:	8d 88 26 08 00 00 	leal	2086(%eax), %ecx
    17bd:	8d 90 41 07 00 00 	leal	1857(%eax), %edx
    17c3:	8d 80 18 08 00 00 	leal	2072(%eax), %eax
    17c9:	51 	pushl	%ecx
    17ca:	6a 67 	pushl	$103
    17cc:	52 	pushl	%edx
    17cd:	50 	pushl	%eax
    17ce:	e8 2d e8 ff ff 	calll	-6099 <_min>
    17d3:	66 66 66 66 2e 0f 1f 84 00 00 00 00 00 	nopw	%cs:(%eax,%eax)

_inherits_rec:
    17e0:	55 	pushl	%ebp
    17e1:	89 e5 	movl	%esp, %ebp
    17e3:	53 	pushl	%ebx
    17e4:	57 	pushl	%edi
    17e5:	56 	pushl	%esi
    17e6:	83 ec 0c 	subl	$12, %esp
    17e9:	89 d7 	movl	%edx, %edi
    17eb:	8b 5d 0c 	movl	12(%ebp), %ebx
    17ee:	39 d9 	cmpl	%ebx, %ecx
    17f0:	74 30 	je	48 <_inherits_rec+0x42>
    17f2:	31 c0 	xorl	%eax, %eax
    17f4:	85 ff 	testl	%edi, %edi
    17f6:	74 2f 	je	47 <_inherits_rec+0x47>
    17f8:	8b 75 08 	movl	8(%ebp), %esi
    17fb:	83 c6 08 	addl	$8, %esi
    17fe:	66 90 	nop
    1800:	8b 4e f8 	movl	-8(%esi), %ecx
    1803:	8b 56 fc 	movl	-4(%esi), %edx
    1806:	83 ec 08 	subl	$8, %esp
    1809:	53 	pushl	%ebx
    180a:	ff 36 	pushl	(%esi)
    180c:	e8 cf ff ff ff 	calll	-49 <_inherits_rec>
    1811:	83 c4 10 	addl	$16, %esp
    1814:	85 c0 	testl	%eax, %eax
    1816:	75 0f 	jne	15 <_inherits_rec+0x47>
    1818:	83 c6 0c 	addl	$12, %esi
    181b:	4f 	decl	%edi
    181c:	75 e2 	jne	-30 <_inherits_rec+0x20>
    181e:	31 c0 	xorl	%eax, %eax
    1820:	eb 05 	jmp	5 <_inherits_rec+0x47>
    1822:	b8 01 00 00 00 	movl	$1, %eax
    1827:	83 c4 0c 	addl	$12, %esp
    182a:	5e 	popl	%esi
    182b:	5f 	popl	%edi
    182c:	5b 	popl	%ebx
    182d:	5d 	popl	%ebp
    182e:	c3 	retl
    182f:	90 	nop

_get_class:
    1830:	55 	pushl	%ebp
    1831:	89 e5 	movl	%esp, %ebp
    1833:	57 	pushl	%edi
    1834:	56 	pushl	%esi
    1835:	e8 00 00 00 00 	calll	0 <_get_class+0xA>
    183a:	5e 	popl	%esi
    183b:	8b 7d 08 	movl	8(%ebp), %edi
    183e:	83 ec 0c 	subl	$12, %esp
    1841:	6a 1c 	pushl	$28
    1843:	e8 b8 e7 ff ff 	calll	-6216 <_min>
    1848:	83 c4 10 	addl	$16, %esp
    184b:	c7 00 03 00 00 00 	movl	$3, (%eax)
    1851:	89 f9 	movl	%edi, %ecx
    1853:	83 e1 03 	andl	$3, %ecx
    1856:	83 f9 03 	cmpl	$3, %ecx
    1859:	75 30 	jne	48 <_get_class+0x5B>
    185b:	83 e7 fc 	andl	$-4, %edi
    185e:	8b 0f 	movl	(%edi), %ecx
    1860:	83 f9 05 	cmpl	$5, %ecx
    1863:	74 12 	je	18 <_get_class+0x47>
    1865:	83 f9 04 	cmpl	$4, %ecx
    1868:	75 3d 	jne	61 <_get_class+0x77>
    186a:	8b 4f 10 	movl	16(%edi), %ecx
    186d:	89 48 0c 	movl	%ecx, 12(%eax)
    1870:	f2 0f 10 47 08 	movsd	8(%edi), %xmm0
    1875:	eb 0b 	jmp	11 <_get_class+0x52>
    1877:	8b 4f 14 	movl	20(%edi), %ecx
    187a:	89 48 0c 	movl	%ecx, 12(%eax)
    187d:	f2 0f 10 47 0c 	movsd	12(%edi), %xmm0
    1882:	f2 0f 11 40 04 	movsd	%xmm0, 4(%eax)
    1887:	5e 	popl	%esi
    1888:	5f 	popl	%edi
    1889:	5d 	popl	%ebp
    188a:	c3 	retl
    188b:	8d 86 01 07 00 00 	leal	1793(%esi), %eax
    1891:	8d 8e 61 06 00 00 	leal	1633(%esi), %ecx
    1897:	8d 96 f5 06 00 00 	leal	1781(%esi), %edx
    189d:	50 	pushl	%eax
    189e:	6a 5c 	pushl	$92
    18a0:	51 	pushl	%ecx
    18a1:	52 	pushl	%edx
    18a2:	e8 59 e7 ff ff 	calll	-6311 <_min>
    18a7:	83 ec 0c 	subl	$12, %esp
    18aa:	8d 86 26 0a 00 00 	leal	2598(%esi), %eax
    18b0:	50 	pushl	%eax
    18b1:	e8 4a e7 ff ff 	calll	-6326 <_min>
    18b6:	83 c4 04 	addl	$4, %esp
    18b9:	6a ff 	pushl	$-1
    18bb:	e8 40 e7 ff ff 	calll	-6336 <_min>
    18c0:	83 c4 0c 	addl	$12, %esp
    18c3:	66 66 66 66 2e 0f 1f 84 00 00 00 00 00 	nopw	%cs:(%eax,%eax)

_get_receiver:
    18d0:	55 	pushl	%ebp
    18d1:	89 e5 	movl	%esp, %ebp
    18d3:	57 	pushl	%edi
    18d4:	56 	pushl	%esi
    18d5:	e8 00 00 00 00 	calll	0 <_get_receiver+0xA>
    18da:	5e 	popl	%esi
    18db:	8b 7d 08 	movl	8(%ebp), %edi
    18de:	83 ec 0c 	subl	$12, %esp
    18e1:	6a 1c 	pushl	$28
    18e3:	e8 18 e7 ff ff 	calll	-6376 <_min>
    18e8:	83 c4 10 	addl	$16, %esp
    18eb:	c7 00 04 00 00 00 	movl	$4, (%eax)
    18f1:	89 f9 	movl	%edi, %ecx
    18f3:	83 e1 03 	andl	$3, %ecx
    18f6:	83 f9 03 	cmpl	$3, %ecx
    18f9:	75 20 	jne	32 <_get_receiver+0x4B>
    18fb:	83 e7 fc 	andl	$-4, %edi
    18fe:	83 3f 06 	cmpl	$6, (%edi)
    1901:	75 34 	jne	52 <_get_receiver+0x67>
    1903:	f2 0f 10 47 0c 	movsd	12(%edi), %xmm0
    1908:	f2 0f 10 4f 14 	movsd	20(%edi), %xmm1
    190d:	f2 0f 11 48 0c 	movsd	%xmm1, 12(%eax)
    1912:	f2 0f 11 40 04 	movsd	%xmm0, 4(%eax)
    1917:	5e 	popl	%esi
    1918:	5f 	popl	%edi
    1919:	5d 	popl	%ebp
    191a:	c3 	retl
    191b:	8d 86 61 06 00 00 	leal	1633(%esi), %eax
    1921:	8d 8e c1 05 00 00 	leal	1473(%esi), %ecx
    1927:	8d 96 55 06 00 00 	leal	1621(%esi), %edx
    192d:	50 	pushl	%eax
    192e:	6a 5c 	pushl	$92
    1930:	51 	pushl	%ecx
    1931:	52 	pushl	%edx
    1932:	e8 c9 e6 ff ff 	calll	-6455 <_min>
    1937:	83 ec 0c 	subl	$12, %esp
    193a:	8d 86 b6 09 00 00 	leal	2486(%esi), %eax
    1940:	50 	pushl	%eax
    1941:	e8 ba e6 ff ff 	calll	-6470 <_min>
    1946:	83 c4 04 	addl	$4, %esp
    1949:	6a ff 	pushl	$-1
    194b:	e8 b0 e6 ff ff 	calll	-6480 <_min>
    1950:	83 c4 0c 	addl	$12, %esp
    1953:	66 66 66 66 2e 0f 1f 84 00 00 00 00 00 	nopw	%cs:(%eax,%eax)

_get_function:
    1960:	55 	pushl	%ebp
    1961:	89 e5 	movl	%esp, %ebp
    1963:	57 	pushl	%edi
    1964:	56 	pushl	%esi
    1965:	e8 00 00 00 00 	calll	0 <_get_function+0xA>
    196a:	5e 	popl	%esi
    196b:	8b 7d 08 	movl	8(%ebp), %edi
    196e:	83 ec 0c 	subl	$12, %esp
    1971:	6a 1c 	pushl	$28
    1973:	e8 88 e6 ff ff 	calll	-6520 <_min>
    1978:	83 c4 10 	addl	$16, %esp
    197b:	c7 00 02 00 00 00 	movl	$2, (%eax)
    1981:	89 f9 	movl	%edi, %ecx
    1983:	83 e1 03 	andl	$3, %ecx
    1986:	83 f9 03 	cmpl	$3, %ecx
    1989:	75 1d 	jne	29 <_get_function+0x48>
    198b:	83 e7 fc 	andl	$-4, %edi
    198e:	8b 0f 	movl	(%edi), %ecx
    1990:	83 f9 05 	cmpl	$5, %ecx
    1993:	74 05 	je	5 <_get_function+0x3A>
    1995:	83 f9 06 	cmpl	$6, %ecx
    1998:	75 2a 	jne	42 <_get_function+0x64>
    199a:	f2 0f 10 47 04 	movsd	4(%edi), %xmm0
    199f:	f2 0f 11 40 04 	movsd	%xmm0, 4(%eax)
    19a4:	5e 	popl	%esi
    19a5:	5f 	popl	%edi
    19a6:	5d 	popl	%ebp
    19a7:	c3 	retl
    19a8:	8d 86 d1 05 00 00 	leal	1489(%esi), %eax
    19ae:	8d 8e 31 05 00 00 	leal	1329(%esi), %ecx
    19b4:	8d 96 c5 05 00 00 	leal	1477(%esi), %edx
    19ba:	50 	pushl	%eax
    19bb:	6a 5c 	pushl	$92
    19bd:	51 	pushl	%ecx
    19be:	52 	pushl	%edx
    19bf:	e8 3c e6 ff ff 	calll	-6596 <_min>
    19c4:	83 ec 0c 	subl	$12, %esp
    19c7:	8d 86 56 09 00 00 	leal	2390(%esi), %eax
    19cd:	50 	pushl	%eax
    19ce:	e8 2d e6 ff ff 	calll	-6611 <_min>
    19d3:	83 c4 04 	addl	$4, %esp
    19d6:	6a ff 	pushl	$-1
    19d8:	e8 23 e6 ff ff 	calll	-6621 <_min>
    19dd:	83 c4 0c 	addl	$12, %esp

_get_attr:
    19e0:	55 	pushl	%ebp
    19e1:	89 e5 	movl	%esp, %ebp
    19e3:	53 	pushl	%ebx
    19e4:	57 	pushl	%edi
    19e5:	56 	pushl	%esi
    19e6:	83 ec 1c 	subl	$28, %esp
    19e9:	e8 00 00 00 00 	calll	0 <_get_attr+0xE>
    19ee:	5e 	popl	%esi
    19ef:	8b 7d 08 	movl	8(%ebp), %edi
    19f2:	89 f8 	movl	%edi, %eax
    19f4:	83 e0 03 	andl	$3, %eax
    19f7:	83 f8 03 	cmpl	$3, %eax
    19fa:	0f 85 4a 01 00 00 	jne	330 <_get_attr+0x16A>
    1a00:	8b 5d 0c 	movl	12(%ebp), %ebx
    1a03:	83 e7 fc 	andl	$-4, %edi
    1a06:	8b 07 	movl	(%edi), %eax
    1a08:	83 f8 04 	cmpl	$4, %eax
    1a0b:	0f 84 91 00 00 00 	je	145 <_get_attr+0xC2>
    1a11:	83 f8 03 	cmpl	$3, %eax
    1a14:	0f 85 4c 01 00 00 	jne	332 <_get_attr+0x186>
    1a1a:	8b 4f 04 	movl	4(%edi), %ecx
    1a1d:	8b 57 08 	movl	8(%edi), %edx
    1a20:	83 ec 08 	subl	$8, %esp
    1a23:	53 	pushl	%ebx
    1a24:	ff 77 0c 	pushl	12(%edi)
    1a27:	e8 b4 fc ff ff 	calll	-844 <_attrsearch_rec>
    1a2c:	83 c4 10 	addl	$16, %esp
    1a2f:	85 c0 	testl	%eax, %eax
    1a31:	0f 84 40 01 00 00 	je	320 <_get_attr+0x197>
    1a37:	8b 00 	movl	(%eax), %eax
    1a39:	89 c1 	movl	%eax, %ecx
    1a3b:	83 e1 03 	andl	$3, %ecx
    1a3e:	83 f9 03 	cmpl	$3, %ecx
    1a41:	0f 85 fb 00 00 00 	jne	251 <_get_attr+0x162>
    1a47:	89 c1 	movl	%eax, %ecx
    1a49:	83 e1 fc 	andl	$-4, %ecx
    1a4c:	83 39 02 	cmpl	$2, (%ecx)
    1a4f:	0f 85 ed 00 00 00 	jne	237 <_get_attr+0x162>
    1a55:	89 75 f0 	movl	%esi, -16(%ebp)
    1a58:	8b 59 04 	movl	4(%ecx), %ebx
    1a5b:	8b 71 08 	movl	8(%ecx), %esi
    1a5e:	8b 47 04 	movl	4(%edi), %eax
    1a61:	89 45 e8 	movl	%eax, -24(%ebp)
    1a64:	8b 47 08 	movl	8(%edi), %eax
    1a67:	89 45 ec 	movl	%eax, -20(%ebp)
    1a6a:	8b 7f 0c 	movl	12(%edi), %edi
    1a6d:	83 ec 0c 	subl	$12, %esp
    1a70:	6a 1c 	pushl	$28
    1a72:	e8 89 e5 ff ff 	calll	-6775 <_min>
    1a77:	83 c4 10 	addl	$16, %esp
    1a7a:	c7 00 05 00 00 00 	movl	$5, (%eax)
    1a80:	89 58 04 	movl	%ebx, 4(%eax)
    1a83:	89 70 08 	movl	%esi, 8(%eax)
    1a86:	8b 4d e8 	movl	-24(%ebp), %ecx
    1a89:	89 48 0c 	movl	%ecx, 12(%eax)
    1a8c:	8b 4d ec 	movl	-20(%ebp), %ecx
    1a8f:	89 48 10 	movl	%ecx, 16(%eax)
    1a92:	89 78 14 	movl	%edi, 20(%eax)
    1a95:	a8 03 	testb	$3, %al
    1a97:	0f 84 a2 00 00 00 	je	162 <_get_attr+0x15F>
    1a9d:	e9 f2 00 00 00 	jmp	242 <_get_attr+0x1B4>
    1aa2:	83 ec 08 	subl	$8, %esp
    1aa5:	53 	pushl	%ebx
    1aa6:	ff 77 04 	pushl	4(%edi)
    1aa9:	e8 52 e5 ff ff 	calll	-6830 <_min>
    1aae:	83 c4 10 	addl	$16, %esp
    1ab1:	85 c0 	testl	%eax, %eax
    1ab3:	74 07 	je	7 <_get_attr+0xDC>
    1ab5:	8b 00 	movl	(%eax), %eax
    1ab7:	e9 86 00 00 00 	jmp	134 <_get_attr+0x162>
    1abc:	8b 4f 08 	movl	8(%edi), %ecx
    1abf:	8b 57 0c 	movl	12(%edi), %edx
    1ac2:	83 ec 08 	subl	$8, %esp
    1ac5:	53 	pushl	%ebx
    1ac6:	ff 77 10 	pushl	16(%edi)
    1ac9:	e8 12 fc ff ff 	calll	-1006 <_attrsearch_rec>
    1ace:	83 c4 10 	addl	$16, %esp
    1ad1:	85 c0 	testl	%eax, %eax
    1ad3:	0f 84 9e 00 00 00 	je	158 <_get_attr+0x197>
    1ad9:	8b 00 	movl	(%eax), %eax
    1adb:	89 c1 	movl	%eax, %ecx
    1add:	83 e1 03 	andl	$3, %ecx
    1ae0:	83 f9 03 	cmpl	$3, %ecx
    1ae3:	75 5d 	jne	93 <_get_attr+0x162>
    1ae5:	89 c1 	movl	%eax, %ecx
    1ae7:	83 e1 fc 	andl	$-4, %ecx
    1aea:	83 39 02 	cmpl	$2, (%ecx)
    1aed:	75 53 	jne	83 <_get_attr+0x162>
    1aef:	89 75 f0 	movl	%esi, -16(%ebp)
    1af2:	83 c7 04 	addl	$4, %edi
    1af5:	8b 71 04 	movl	4(%ecx), %esi
    1af8:	8b 59 08 	movl	8(%ecx), %ebx
    1afb:	f2 0f 10 07 	movsd	(%edi), %xmm0
    1aff:	f2 0f 10 4f 08 	movsd	8(%edi), %xmm1
    1b04:	f2 0f 11 4d e0 	movsd	%xmm1, -32(%ebp)
    1b09:	f2 0f 11 45 d8 	movsd	%xmm0, -40(%ebp)
    1b0e:	83 ec 0c 	subl	$12, %esp
    1b11:	6a 1c 	pushl	$28
    1b13:	e8 e8 e4 ff ff 	calll	-6936 <_min>
    1b18:	83 c4 10 	addl	$16, %esp
    1b1b:	c7 00 06 00 00 00 	movl	$6, (%eax)
    1b21:	89 70 04 	movl	%esi, 4(%eax)
    1b24:	89 58 08 	movl	%ebx, 8(%eax)
    1b27:	f2 0f 10 45 d8 	movsd	-40(%ebp), %xmm0
    1b2c:	f2 0f 10 4d e0 	movsd	-32(%ebp), %xmm1
    1b31:	f2 0f 11 48 14 	movsd	%xmm1, 20(%eax)
    1b36:	f2 0f 11 40 0c 	movsd	%xmm0, 12(%eax)
    1b3b:	a8 03 	testb	$3, %al
    1b3d:	75 55 	jne	85 <_get_attr+0x1B4>
    1b3f:	83 c8 03 	orl	$3, %eax
    1b42:	83 c4 1c 	addl	$28, %esp
    1b45:	5e 	popl	%esi
    1b46:	5f 	popl	%edi
    1b47:	5b 	popl	%ebx
    1b48:	5d 	popl	%ebp
    1b49:	c3 	retl
    1b4a:	8d 86 4d 05 00 00 	leal	1357(%esi), %eax
    1b50:	8d 8e ad 04 00 00 	leal	1197(%esi), %ecx
    1b56:	8d 96 41 05 00 00 	leal	1345(%esi), %edx
    1b5c:	50 	pushl	%eax
    1b5d:	6a 5c 	pushl	$92
    1b5f:	51 	pushl	%ecx
    1b60:	52 	pushl	%edx
    1b61:	e8 9a e4 ff ff 	calll	-7014 <_min>
    1b66:	83 ec 0c 	subl	$12, %esp
    1b69:	8d 86 f2 08 00 00 	leal	2290(%esi), %eax
    1b6f:	50 	pushl	%eax
    1b70:	e8 8b e4 ff ff 	calll	-7029 <_min>
    1b75:	eb 10 	jmp	16 <_get_attr+0x1A7>
    1b77:	83 ec 08 	subl	$8, %esp
    1b7a:	8d 86 2d 07 00 00 	leal	1837(%esi), %eax
    1b80:	53 	pushl	%ebx
    1b81:	50 	pushl	%eax
    1b82:	e8 79 e4 ff ff 	calll	-7047 <_min>
    1b87:	83 c4 04 	addl	$4, %esp
    1b8a:	6a ff 	pushl	$-1
    1b8c:	e8 6f e4 ff ff 	calll	-7057 <_min>
    1b91:	83 c4 0c 	addl	$12, %esp
    1b94:	8b 55 f0 	movl	-16(%ebp), %edx
    1b97:	8d 82 b7 04 00 00 	leal	1207(%edx), %eax
    1b9d:	8d 8a ad 04 00 00 	leal	1197(%edx), %ecx
    1ba3:	8d 92 a2 04 00 00 	leal	1186(%edx), %edx
    1ba9:	50 	pushl	%eax
    1baa:	6a 49 	pushl	$73
    1bac:	eb b1 	jmp	-79 <_get_attr+0x17F>
    1bae:	66 90 	nop

_set_attr:
    1bb0:	55 	pushl	%ebp
    1bb1:	89 e5 	movl	%esp, %ebp
    1bb3:	53 	pushl	%ebx
    1bb4:	57 	pushl	%edi
    1bb5:	56 	pushl	%esi
    1bb6:	83 ec 1c 	subl	$28, %esp
    1bb9:	e8 00 00 00 00 	calll	0 <_set_attr+0xE>
    1bbe:	58 	popl	%eax
    1bbf:	89 45 f0 	movl	%eax, -16(%ebp)
    1bc2:	8b 75 08 	movl	8(%ebp), %esi
    1bc5:	8b 45 0c 	movl	12(%ebp), %eax
    1bc8:	89 04 24 	movl	%eax, (%esp)
    1bcb:	e8 30 e4 ff ff 	calll	-7120 <_min>
    1bd0:	40 	incl	%eax
    1bd1:	89 04 24 	movl	%eax, (%esp)
    1bd4:	e8 27 e4 ff ff 	calll	-7129 <_min>
    1bd9:	89 c7 	movl	%eax, %edi
    1bdb:	c7 04 24 04 00 00 00 	movl	$4, (%esp)
    1be2:	e8 19 e4 ff ff 	calll	-7143 <_min>
    1be7:	89 c3 	movl	%eax, %ebx
    1be9:	8b 45 0c 	movl	12(%ebp), %eax
    1bec:	89 44 24 04 	movl	%eax, 4(%esp)
    1bf0:	89 3c 24 	movl	%edi, (%esp)
    1bf3:	e8 08 e4 ff ff 	calll	-7160 <_min>
    1bf8:	8b 45 10 	movl	16(%ebp), %eax
    1bfb:	89 03 	movl	%eax, (%ebx)
    1bfd:	89 f0 	movl	%esi, %eax
    1bff:	83 e0 03 	andl	$3, %eax
    1c02:	83 f8 03 	cmpl	$3, %eax
    1c05:	75 43 	jne	67 <_set_attr+0x9A>
    1c07:	83 e6 fc 	andl	$-4, %esi
    1c0a:	8b 06 	movl	(%esi), %eax
    1c0c:	83 c0 fd 	addl	$-3, %eax
    1c0f:	83 f8 02 	cmpl	$2, %eax
    1c12:	73 66 	jae	102 <_set_attr+0xCA>
    1c14:	8b 76 04 	movl	4(%esi), %esi
    1c17:	89 5c 24 08 	movl	%ebx, 8(%esp)
    1c1b:	89 7c 24 04 	movl	%edi, 4(%esp)
    1c1f:	89 34 24 	movl	%esi, (%esp)
    1c22:	e8 d9 e3 ff ff 	calll	-7207 <_min>
    1c27:	85 c0 	testl	%eax, %eax
    1c29:	75 14 	jne	20 <_set_attr+0x8F>
    1c2b:	89 5c 24 08 	movl	%ebx, 8(%esp)
    1c2f:	89 7c 24 04 	movl	%edi, 4(%esp)
    1c33:	89 34 24 	movl	%esi, (%esp)
    1c36:	e8 c5 e3 ff ff 	calll	-7227 <_min>
    1c3b:	85 c0 	testl	%eax, %eax
    1c3d:	74 4e 	je	78 <_set_attr+0xDD>
    1c3f:	8b 45 10 	movl	16(%ebp), %eax
    1c42:	83 c4 1c 	addl	$28, %esp
    1c45:	5e 	popl	%esi
    1c46:	5f 	popl	%edi
    1c47:	5b 	popl	%ebx
    1c48:	5d 	popl	%ebp
    1c49:	c3 	retl
    1c4a:	8b 4d f0 	movl	-16(%ebp), %ecx
    1c4d:	8d 81 7d 03 00 00 	leal	893(%ecx), %eax
    1c53:	89 44 24 0c 	movl	%eax, 12(%esp)
    1c57:	8d 81 dd 02 00 00 	leal	733(%ecx), %eax
    1c5d:	89 44 24 04 	movl	%eax, 4(%esp)
    1c61:	8d 81 71 03 00 00 	leal	881(%ecx), %eax
    1c67:	89 04 24 	movl	%eax, (%esp)
    1c6a:	c7 44 24 08 5c 00 00 00 	movl	$92, 8(%esp)
    1c72:	e8 89 e3 ff ff 	calll	-7287 <_min>
    1c77:	83 ec 10 	subl	$16, %esp
    1c7a:	8b 45 f0 	movl	-16(%ebp), %eax
    1c7d:	8d 80 52 07 00 00 	leal	1874(%eax), %eax
    1c83:	89 04 24 	movl	%eax, (%esp)
    1c86:	e8 75 e3 ff ff 	calll	-7307 <_min>
    1c8b:	eb 11 	jmp	17 <_set_attr+0xEE>
    1c8d:	8b 45 f0 	movl	-16(%ebp), %eax
    1c90:	8d 80 a6 04 00 00 	leal	1190(%eax), %eax
    1c96:	89 04 24 	movl	%eax, (%esp)
    1c99:	e8 62 e3 ff ff 	calll	-7326 <_min>
    1c9e:	c7 04 24 ff ff ff ff 	movl	$4294967295, (%esp)
    1ca5:	e8 56 e3 ff ff 	calll	-7338 <_min>
    1caa:	83 ec 04 	subl	$4, %esp
    1cad:	0f 1f 00 	nopl	(%eax)

_error_pyobj:
    1cb0:	55 	pushl	%ebp
    1cb1:	89 e5 	movl	%esp, %ebp
    1cb3:	83 ec 08 	subl	$8, %esp
    1cb6:	8b 45 08 	movl	8(%ebp), %eax
    1cb9:	89 04 24 	movl	%eax, (%esp)
    1cbc:	e8 3f e3 ff ff 	calll	-7361 <_min>
    1cc1:	c7 04 24 ff ff ff ff 	movl	$4294967295, (%esp)
    1cc8:	e8 33 e3 ff ff 	calll	-7373 <_min>
    1ccd:	83 ec 04 	subl	$4, %esp

_equal_pyobj:
    1cd0:	55 	pushl	%ebp
    1cd1:	89 e5 	movl	%esp, %ebp
    1cd3:	53 	pushl	%ebx
    1cd4:	57 	pushl	%edi
    1cd5:	56 	pushl	%esi
    1cd6:	83 ec 0c 	subl	$12, %esp
    1cd9:	e8 00 00 00 00 	calll	0 <_equal_pyobj+0xE>
    1cde:	5e 	popl	%esi
    1cdf:	89 c8 	movl	%ecx, %eax
    1ce1:	24 03 	andb	$3, %al
    1ce3:	3c 01 	cmpb	$1, %al
    1ce5:	0f 84 9c 00 00 00 	je	156 <_equal_pyobj+0xB7>
    1ceb:	3c 02 	cmpb	$2, %al
    1ced:	0f 84 a9 00 00 00 	je	169 <_equal_pyobj+0xCC>
    1cf3:	3c 03 	cmpb	$3, %al
    1cf5:	0f 85 8c 00 00 00 	jne	140 <_equal_pyobj+0xB7>
    1cfb:	89 d6 	movl	%edx, %esi
    1cfd:	83 e6 03 	andl	$3, %esi
    1d00:	31 c0 	xorl	%eax, %eax
    1d02:	83 fe 03 	cmpl	$3, %esi
    1d05:	0f 85 da 00 00 00 	jne	218 <_equal_pyobj+0x115>
    1d0b:	83 e1 fc 	andl	$-4, %ecx
    1d0e:	83 e2 fc 	andl	$-4, %edx
    1d11:	8b 31 	movl	(%ecx), %esi
    1d13:	3b 32 	cmpl	(%edx), %esi
    1d15:	0f 85 ca 00 00 00 	jne	202 <_equal_pyobj+0x115>
    1d1b:	83 fe 03 	cmpl	$3, %esi
    1d1e:	0f 84 c9 00 00 00 	je	201 <_equal_pyobj+0x11D>
    1d24:	83 fe 01 	cmpl	$1, %esi
    1d27:	0f 84 c9 00 00 00 	je	201 <_equal_pyobj+0x126>
    1d2d:	85 f6 	testl	%esi, %esi
    1d2f:	0f 85 b0 00 00 00 	jne	176 <_equal_pyobj+0x115>
    1d35:	8b 59 08 	movl	8(%ecx), %ebx
    1d38:	8b 42 08 	movl	8(%edx), %eax
    1d3b:	39 d8 	cmpl	%ebx, %eax
    1d3d:	89 5d ec 	movl	%ebx, -20(%ebp)
    1d40:	89 45 f0 	movl	%eax, -16(%ebp)
    1d43:	0f 4e d8 	cmovlel	%eax, %ebx
    1d46:	85 db 	testl	%ebx, %ebx
    1d48:	0f 84 b8 00 00 00 	je	184 <_equal_pyobj+0x136>
    1d4e:	8b 71 04 	movl	4(%ecx), %esi
    1d51:	8b 7a 04 	movl	4(%edx), %edi
    1d54:	b9 01 00 00 00 	movl	$1, %ecx
    1d59:	0f 1f 80 00 00 00 00 	nopl	(%eax)
    1d60:	85 c9 	testl	%ecx, %ecx
    1d62:	74 10 	je	16 <_equal_pyobj+0xA4>
    1d64:	8b 0e 	movl	(%esi), %ecx
    1d66:	8b 17 	movl	(%edi), %edx
    1d68:	e8 63 ff ff ff 	calll	-157 <_equal_pyobj>
    1d6d:	85 c0 	testl	%eax, %eax
    1d6f:	0f 95 c0 	setne	%al
    1d72:	eb 02 	jmp	2 <_equal_pyobj+0xA6>
    1d74:	31 c0 	xorl	%eax, %eax
    1d76:	0f b6 c8 	movzbl	%al, %ecx
    1d79:	83 c6 04 	addl	$4, %esi
    1d7c:	83 c7 04 	addl	$4, %edi
    1d7f:	4b 	decl	%ebx
    1d80:	75 de 	jne	-34 <_equal_pyobj+0x90>
    1d82:	e9 84 00 00 00 	jmp	132 <_equal_pyobj+0x13B>
    1d87:	89 d3 	movl	%edx, %ebx
    1d89:	80 e3 03 	andb	$3, %bl
    1d8c:	74 05 	je	5 <_equal_pyobj+0xC3>
    1d8e:	80 fb 01 	cmpb	$1, %bl
    1d91:	75 15 	jne	21 <_equal_pyobj+0xD8>
    1d93:	31 ca 	xorl	%ecx, %edx
    1d95:	83 fa 04 	cmpl	$4, %edx
    1d98:	19 c0 	sbbl	%eax, %eax
    1d9a:	eb 46 	jmp	70 <_equal_pyobj+0x112>
    1d9c:	89 d3 	movl	%edx, %ebx
    1d9e:	80 e3 03 	andb	$3, %bl
    1da1:	74 28 	je	40 <_equal_pyobj+0xFB>
    1da3:	80 fb 01 	cmpb	$1, %bl
    1da6:	74 23 	je	35 <_equal_pyobj+0xFB>
    1da8:	31 c0 	xorl	%eax, %eax
    1daa:	80 fb 02 	cmpb	$2, %bl
    1dad:	75 36 	jne	54 <_equal_pyobj+0x115>
    1daf:	8d 86 10 02 00 00 	leal	528(%esi), %eax
    1db5:	8d 8e bd 01 00 00 	leal	445(%esi), %ecx
    1dbb:	8d 96 03 02 00 00 	leal	515(%esi), %edx
    1dc1:	50 	pushl	%eax
    1dc2:	6a 54 	pushl	$84
    1dc4:	51 	pushl	%ecx
    1dc5:	52 	pushl	%edx
    1dc6:	e8 35 e2 ff ff 	calll	-7627 <_min>
    1dcb:	83 e1 fc 	andl	$-4, %ecx
    1dce:	f3 0f 2a c1 	cvtsi2ssl	%ecx, %xmm0
    1dd2:	c1 fa 02 	sarl	$2, %edx
    1dd5:	f3 0f 2a ca 	cvtsi2ssl	%edx, %xmm1
    1dd9:	f3 0f c2 c8 00 	cmpeqss	%xmm0, %xmm1
    1dde:	66 0f 7e c8 	movd	%xmm1, %eax
    1de2:	83 e0 01 	andl	$1, %eax
    1de5:	83 c4 0c 	addl	$12, %esp
    1de8:	5e 	popl	%esi
    1de9:	5f 	popl	%edi
    1dea:	5b 	popl	%ebx
    1deb:	5d 	popl	%ebp
    1dec:	c3 	retl
    1ded:	31 c0 	xorl	%eax, %eax
    1def:	39 d1 	cmpl	%edx, %ecx
    1df1:	0f 94 c0 	sete	%al
    1df4:	eb ef 	jmp	-17 <_equal_pyobj+0x115>
    1df6:	8b 49 04 	movl	4(%ecx), %ecx
    1df9:	8b 52 04 	movl	4(%edx), %edx
    1dfc:	e8 7f eb ff ff 	calll	-5249 <_dict_equal>
    1e01:	0f be c0 	movsbl	%al, %eax
    1e04:	eb df 	jmp	-33 <_equal_pyobj+0x115>
    1e06:	b9 01 00 00 00 	movl	$1, %ecx
    1e0b:	31 c0 	xorl	%eax, %eax
    1e0d:	8b 55 f0 	movl	-16(%ebp), %edx
    1e10:	39 55 ec 	cmpl	%edx, -20(%ebp)
    1e13:	0f 44 c1 	cmovel	%ecx, %eax
    1e16:	eb cd 	jmp	-51 <_equal_pyobj+0x115>
    1e18:	0f 1f 84 00 00 00 00 00 	nopl	(%eax,%eax)

_list_subscript:
    1e20:	55 	pushl	%ebp
    1e21:	89 e5 	movl	%esp, %ebp
    1e23:	53 	pushl	%ebx
    1e24:	56 	pushl	%esi
    1e25:	83 ec 10 	subl	$16, %esp
    1e28:	e8 00 00 00 00 	calll	0 <_list_subscript+0xD>
    1e2d:	5e 	popl	%esi
    1e2e:	8b 5d 08 	movl	8(%ebp), %ebx
    1e31:	89 d8 	movl	%ebx, %eax
    1e33:	24 03 	andb	$3, %al
    1e35:	3c 01 	cmpb	$1, %al
    1e37:	74 13 	je	19 <_list_subscript+0x2C>
    1e39:	84 c0 	testb	%al, %al
    1e3b:	75 20 	jne	32 <_list_subscript+0x3D>
    1e3d:	c1 fb 02 	sarl	$2, %ebx
    1e40:	78 04 	js	4 <_list_subscript+0x26>
    1e42:	39 d3 	cmpl	%edx, %ebx
    1e44:	72 0d 	jb	13 <_list_subscript+0x33>
    1e46:	01 d3 	addl	%edx, %ebx
    1e48:	72 09 	jb	9 <_list_subscript+0x33>
    1e4a:	eb 19 	jmp	25 <_list_subscript+0x45>
    1e4c:	c1 fb 02 	sarl	$2, %ebx
    1e4f:	39 d3 	cmpl	%edx, %ebx
    1e51:	73 12 	jae	18 <_list_subscript+0x45>
    1e53:	8d 04 99 	leal	(%ecx,%ebx,4), %eax
    1e56:	83 c4 10 	addl	$16, %esp
    1e59:	5e 	popl	%esi
    1e5a:	5b 	popl	%ebx
    1e5b:	5d 	popl	%ebp
    1e5c:	c3 	retl
    1e5d:	8d 86 7d 02 00 00 	leal	637(%esi), %eax
    1e63:	eb 06 	jmp	6 <_list_subscript+0x4B>
    1e65:	8d 86 56 02 00 00 	leal	598(%esi), %eax
    1e6b:	89 04 24 	movl	%eax, (%esp)
    1e6e:	e8 8d e1 ff ff 	calll	-7795 <_min>
    1e73:	c7 04 24 01 00 00 00 	movl	$1, (%esp)
    1e7a:	e8 81 e1 ff ff 	calll	-7807 <_min>
    1e7f:	83 ec 04 	subl	$4, %esp
